*** IR Dump Before Pre-ISel Intrinsic Lowering ***
; ModuleID = 'main.ll'
source_filename = "main.cpp"
target datalayout = "e-m:e-p270:32:32-p271:32:32-p272:64:64-i64:64-f80:128-n8:16:32:64-S128"
target triple = "x86_64-pc-linux-gnu"

%"class.std::ios_base::Init" = type { i8 }
%"class.std::basic_istream" = type { i32 (...)**, i64, %"class.std::basic_ios" }
%"class.std::basic_ios" = type { %"class.std::ios_base", %"class.std::basic_ostream"*, i8, i8, %"class.std::basic_streambuf"*, %"class.std::ctype"*, %"class.std::num_put"*, %"class.std::num_get"* }
%"class.std::ios_base" = type { i32 (...)**, i64, i64, i32, i32, i32, %"struct.std::ios_base::_Callback_list"*, %"struct.std::ios_base::_Words", [8 x %"struct.std::ios_base::_Words"], i32, %"struct.std::ios_base::_Words"*, %"class.std::locale" }
%"struct.std::ios_base::_Callback_list" = type { %"struct.std::ios_base::_Callback_list"*, void (i32, %"class.std::ios_base"*, i32)*, i32, i32 }
%"struct.std::ios_base::_Words" = type { i8*, i64 }
%"class.std::locale" = type { %"class.std::locale::_Impl"* }
%"class.std::locale::_Impl" = type { i32, %"class.std::locale::facet"**, i64, %"class.std::locale::facet"**, i8** }
%"class.std::locale::facet" = type <{ i32 (...)**, i32, [4 x i8] }>
%"class.std::basic_ostream" = type { i32 (...)**, %"class.std::basic_ios" }
%"class.std::basic_streambuf" = type { i32 (...)**, i8*, i8*, i8*, i8*, i8*, i8*, %"class.std::locale" }
%"class.std::ctype" = type <{ %"class.std::locale::facet.base", [4 x i8], %struct.__locale_struct*, i8, [7 x i8], i32*, i32*, i16*, i8, [256 x i8], [256 x i8], i8, [6 x i8] }>
%"class.std::locale::facet.base" = type <{ i32 (...)**, i32 }>
%struct.__locale_struct = type { [13 x %struct.__locale_data*], i16*, i32*, i32*, [13 x i8*] }
%struct.__locale_data = type opaque
%"class.std::num_put" = type { %"class.std::locale::facet.base", [4 x i8] }
%"class.std::num_get" = type { %"class.std::locale::facet.base", [4 x i8] }

@_ZStL8__ioinit = internal global %"class.std::ios_base::Init" zeroinitializer, align 1
@__dso_handle = external hidden global i8
@_ZSt3cin = external dso_local global %"class.std::basic_istream", align 8
@_ZSt4cout = external dso_local global %"class.std::basic_ostream", align 8
@llvm.global_ctors = appending global [1 x { i32, void ()*, i8* }] [{ i32, void ()*, i8* } { i32 65535, void ()* @_GLOBAL__sub_I_main.cpp, i8* null }]

; Function Attrs: noinline uwtable
define internal void @__cxx_global_var_init() #0 section ".text.startup" {
  call void @_ZNSt8ios_base4InitC1Ev(%"class.std::ios_base::Init"* @_ZStL8__ioinit)
  %1 = call i32 @__cxa_atexit(void (i8*)* bitcast (void (%"class.std::ios_base::Init"*)* @_ZNSt8ios_base4InitD1Ev to void (i8*)*), i8* getelementptr inbounds (%"class.std::ios_base::Init", %"class.std::ios_base::Init"* @_ZStL8__ioinit, i32 0, i32 0), i8* @__dso_handle) #3
  ret void
}

declare dso_local void @_ZNSt8ios_base4InitC1Ev(%"class.std::ios_base::Init"*) unnamed_addr #1

; Function Attrs: nounwind
declare dso_local void @_ZNSt8ios_base4InitD1Ev(%"class.std::ios_base::Init"*) unnamed_addr #2

; Function Attrs: nounwind
declare dso_local i32 @__cxa_atexit(void (i8*)*, i8*, i8*) #3

; Function Attrs: noinline norecurse uwtable
define dso_local i32 @main() #4 {
  %1 = alloca i32, align 4
  %2 = alloca i32, align 4
  %3 = alloca i32, align 4
  %4 = alloca i32, align 4
  store i32 0, i32* %1, align 4
  %5 = call dereferenceable(280) %"class.std::basic_istream"* @_ZNSirsERi(%"class.std::basic_istream"* @_ZSt3cin, i32* dereferenceable(4) %3)
  store i32 2, i32* %2, align 4
  store i32 1, i32* %4, align 4
  br label %6

6:                                                ; preds = %10, %0
  %7 = load i32, i32* %2, align 4
  %8 = load i32, i32* %3, align 4
  %9 = icmp sle i32 %7, %8
  br i1 %9, label %10, label %16

10:                                               ; preds = %6
  %11 = load i32, i32* %4, align 4
  %12 = load i32, i32* %2, align 4
  %13 = mul nsw i32 %11, %12
  store i32 %13, i32* %4, align 4
  %14 = load i32, i32* %2, align 4
  %15 = add nsw i32 %14, 1
  store i32 %15, i32* %2, align 4
  br label %6

16:                                               ; preds = %6
  %17 = load i32, i32* %4, align 4
  %18 = call dereferenceable(272) %"class.std::basic_ostream"* @_ZNSolsEi(%"class.std::basic_ostream"* @_ZSt4cout, i32 %17)
  %19 = call dereferenceable(272) %"class.std::basic_ostream"* @_ZNSolsEPFRSoS_E(%"class.std::basic_ostream"* %18, %"class.std::basic_ostream"* (%"class.std::basic_ostream"*)* @_ZSt4endlIcSt11char_traitsIcEERSt13basic_ostreamIT_T0_ES6_)
  ret i32 0
}

declare dso_local dereferenceable(280) %"class.std::basic_istream"* @_ZNSirsERi(%"class.std::basic_istream"*, i32* dereferenceable(4)) #1

declare dso_local dereferenceable(272) %"class.std::basic_ostream"* @_ZNSolsEi(%"class.std::basic_ostream"*, i32) #1

declare dso_local dereferenceable(272) %"class.std::basic_ostream"* @_ZNSolsEPFRSoS_E(%"class.std::basic_ostream"*, %"class.std::basic_ostream"* (%"class.std::basic_ostream"*)*) #1

declare dso_local dereferenceable(272) %"class.std::basic_ostream"* @_ZSt4endlIcSt11char_traitsIcEERSt13basic_ostreamIT_T0_ES6_(%"class.std::basic_ostream"* dereferenceable(272)) #1

; Function Attrs: noinline uwtable
define internal void @_GLOBAL__sub_I_main.cpp() #0 section ".text.startup" {
  call void @__cxx_global_var_init()
  ret void
}

attributes #0 = { noinline uwtable "correctly-rounded-divide-sqrt-fp-math"="false" "disable-tail-calls"="false" "frame-pointer"="all" "less-precise-fpmad"="false" "min-legal-vector-width"="0" "no-infs-fp-math"="false" "no-jump-tables"="false" "no-nans-fp-math"="false" "no-signed-zeros-fp-math"="false" "no-trapping-math"="false" "stack-protector-buffer-size"="8" "target-cpu"="x86-64" "target-features"="+cx8,+fxsr,+mmx,+sse,+sse2,+x87" "unsafe-fp-math"="false" "use-soft-float"="false" }
attributes #1 = { "correctly-rounded-divide-sqrt-fp-math"="false" "disable-tail-calls"="false" "frame-pointer"="all" "less-precise-fpmad"="false" "no-infs-fp-math"="false" "no-nans-fp-math"="false" "no-signed-zeros-fp-math"="false" "no-trapping-math"="false" "stack-protector-buffer-size"="8" "target-cpu"="x86-64" "target-features"="+cx8,+fxsr,+mmx,+sse,+sse2,+x87" "unsafe-fp-math"="false" "use-soft-float"="false" }
attributes #2 = { nounwind "correctly-rounded-divide-sqrt-fp-math"="false" "disable-tail-calls"="false" "frame-pointer"="all" "less-precise-fpmad"="false" "no-infs-fp-math"="false" "no-nans-fp-math"="false" "no-signed-zeros-fp-math"="false" "no-trapping-math"="false" "stack-protector-buffer-size"="8" "target-cpu"="x86-64" "target-features"="+cx8,+fxsr,+mmx,+sse,+sse2,+x87" "unsafe-fp-math"="false" "use-soft-float"="false" }
attributes #3 = { nounwind }
attributes #4 = { noinline norecurse uwtable "correctly-rounded-divide-sqrt-fp-math"="false" "disable-tail-calls"="false" "frame-pointer"="all" "less-precise-fpmad"="false" "min-legal-vector-width"="0" "no-infs-fp-math"="false" "no-jump-tables"="false" "no-nans-fp-math"="false" "no-signed-zeros-fp-math"="false" "no-trapping-math"="false" "stack-protector-buffer-size"="8" "target-cpu"="x86-64" "target-features"="+cx8,+fxsr,+mmx,+sse,+sse2,+x87" "unsafe-fp-math"="false" "use-soft-float"="false" }

!llvm.module.flags = !{!0}
!llvm.ident = !{!1}

!0 = !{i32 1, !"wchar_size", i32 4}
!1 = !{!"clang version 10.0.0-4ubuntu1 "}
*** IR Dump After Pre-ISel Intrinsic Lowering ***
; ModuleID = 'main.ll'
source_filename = "main.cpp"
target datalayout = "e-m:e-p270:32:32-p271:32:32-p272:64:64-i64:64-f80:128-n8:16:32:64-S128"
target triple = "x86_64-pc-linux-gnu"

%"class.std::ios_base::Init" = type { i8 }
%"class.std::basic_istream" = type { i32 (...)**, i64, %"class.std::basic_ios" }
%"class.std::basic_ios" = type { %"class.std::ios_base", %"class.std::basic_ostream"*, i8, i8, %"class.std::basic_streambuf"*, %"class.std::ctype"*, %"class.std::num_put"*, %"class.std::num_get"* }
%"class.std::ios_base" = type { i32 (...)**, i64, i64, i32, i32, i32, %"struct.std::ios_base::_Callback_list"*, %"struct.std::ios_base::_Words", [8 x %"struct.std::ios_base::_Words"], i32, %"struct.std::ios_base::_Words"*, %"class.std::locale" }
%"struct.std::ios_base::_Callback_list" = type { %"struct.std::ios_base::_Callback_list"*, void (i32, %"class.std::ios_base"*, i32)*, i32, i32 }
%"struct.std::ios_base::_Words" = type { i8*, i64 }
%"class.std::locale" = type { %"class.std::locale::_Impl"* }
%"class.std::locale::_Impl" = type { i32, %"class.std::locale::facet"**, i64, %"class.std::locale::facet"**, i8** }
%"class.std::locale::facet" = type <{ i32 (...)**, i32, [4 x i8] }>
%"class.std::basic_ostream" = type { i32 (...)**, %"class.std::basic_ios" }
%"class.std::basic_streambuf" = type { i32 (...)**, i8*, i8*, i8*, i8*, i8*, i8*, %"class.std::locale" }
%"class.std::ctype" = type <{ %"class.std::locale::facet.base", [4 x i8], %struct.__locale_struct*, i8, [7 x i8], i32*, i32*, i16*, i8, [256 x i8], [256 x i8], i8, [6 x i8] }>
%"class.std::locale::facet.base" = type <{ i32 (...)**, i32 }>
%struct.__locale_struct = type { [13 x %struct.__locale_data*], i16*, i32*, i32*, [13 x i8*] }
%struct.__locale_data = type opaque
%"class.std::num_put" = type { %"class.std::locale::facet.base", [4 x i8] }
%"class.std::num_get" = type { %"class.std::locale::facet.base", [4 x i8] }

@_ZStL8__ioinit = internal global %"class.std::ios_base::Init" zeroinitializer, align 1
@__dso_handle = external hidden global i8
@_ZSt3cin = external dso_local global %"class.std::basic_istream", align 8
@_ZSt4cout = external dso_local global %"class.std::basic_ostream", align 8
@llvm.global_ctors = appending global [1 x { i32, void ()*, i8* }] [{ i32, void ()*, i8* } { i32 65535, void ()* @_GLOBAL__sub_I_main.cpp, i8* null }]

; Function Attrs: noinline uwtable
define internal void @__cxx_global_var_init() #0 section ".text.startup" {
  call void @_ZNSt8ios_base4InitC1Ev(%"class.std::ios_base::Init"* @_ZStL8__ioinit)
  %1 = call i32 @__cxa_atexit(void (i8*)* bitcast (void (%"class.std::ios_base::Init"*)* @_ZNSt8ios_base4InitD1Ev to void (i8*)*), i8* getelementptr inbounds (%"class.std::ios_base::Init", %"class.std::ios_base::Init"* @_ZStL8__ioinit, i32 0, i32 0), i8* @__dso_handle) #3
  ret void
}

declare dso_local void @_ZNSt8ios_base4InitC1Ev(%"class.std::ios_base::Init"*) unnamed_addr #1

; Function Attrs: nounwind
declare dso_local void @_ZNSt8ios_base4InitD1Ev(%"class.std::ios_base::Init"*) unnamed_addr #2

; Function Attrs: nounwind
declare dso_local i32 @__cxa_atexit(void (i8*)*, i8*, i8*) #3

; Function Attrs: noinline norecurse uwtable
define dso_local i32 @main() #4 {
  %1 = alloca i32, align 4
  %2 = alloca i32, align 4
  %3 = alloca i32, align 4
  %4 = alloca i32, align 4
  store i32 0, i32* %1, align 4
  %5 = call dereferenceable(280) %"class.std::basic_istream"* @_ZNSirsERi(%"class.std::basic_istream"* @_ZSt3cin, i32* dereferenceable(4) %3)
  store i32 2, i32* %2, align 4
  store i32 1, i32* %4, align 4
  br label %6

6:                                                ; preds = %10, %0
  %7 = load i32, i32* %2, align 4
  %8 = load i32, i32* %3, align 4
  %9 = icmp sle i32 %7, %8
  br i1 %9, label %10, label %16

10:                                               ; preds = %6
  %11 = load i32, i32* %4, align 4
  %12 = load i32, i32* %2, align 4
  %13 = mul nsw i32 %11, %12
  store i32 %13, i32* %4, align 4
  %14 = load i32, i32* %2, align 4
  %15 = add nsw i32 %14, 1
  store i32 %15, i32* %2, align 4
  br label %6

16:                                               ; preds = %6
  %17 = load i32, i32* %4, align 4
  %18 = call dereferenceable(272) %"class.std::basic_ostream"* @_ZNSolsEi(%"class.std::basic_ostream"* @_ZSt4cout, i32 %17)
  %19 = call dereferenceable(272) %"class.std::basic_ostream"* @_ZNSolsEPFRSoS_E(%"class.std::basic_ostream"* %18, %"class.std::basic_ostream"* (%"class.std::basic_ostream"*)* @_ZSt4endlIcSt11char_traitsIcEERSt13basic_ostreamIT_T0_ES6_)
  ret i32 0
}

declare dso_local dereferenceable(280) %"class.std::basic_istream"* @_ZNSirsERi(%"class.std::basic_istream"*, i32* dereferenceable(4)) #1

declare dso_local dereferenceable(272) %"class.std::basic_ostream"* @_ZNSolsEi(%"class.std::basic_ostream"*, i32) #1

declare dso_local dereferenceable(272) %"class.std::basic_ostream"* @_ZNSolsEPFRSoS_E(%"class.std::basic_ostream"*, %"class.std::basic_ostream"* (%"class.std::basic_ostream"*)*) #1

declare dso_local dereferenceable(272) %"class.std::basic_ostream"* @_ZSt4endlIcSt11char_traitsIcEERSt13basic_ostreamIT_T0_ES6_(%"class.std::basic_ostream"* dereferenceable(272)) #1

; Function Attrs: noinline uwtable
define internal void @_GLOBAL__sub_I_main.cpp() #0 section ".text.startup" {
  call void @__cxx_global_var_init()
  ret void
}

attributes #0 = { noinline uwtable "correctly-rounded-divide-sqrt-fp-math"="false" "disable-tail-calls"="false" "frame-pointer"="all" "less-precise-fpmad"="false" "min-legal-vector-width"="0" "no-infs-fp-math"="false" "no-jump-tables"="false" "no-nans-fp-math"="false" "no-signed-zeros-fp-math"="false" "no-trapping-math"="false" "stack-protector-buffer-size"="8" "target-cpu"="x86-64" "target-features"="+cx8,+fxsr,+mmx,+sse,+sse2,+x87" "unsafe-fp-math"="false" "use-soft-float"="false" }
attributes #1 = { "correctly-rounded-divide-sqrt-fp-math"="false" "disable-tail-calls"="false" "frame-pointer"="all" "less-precise-fpmad"="false" "no-infs-fp-math"="false" "no-nans-fp-math"="false" "no-signed-zeros-fp-math"="false" "no-trapping-math"="false" "stack-protector-buffer-size"="8" "target-cpu"="x86-64" "target-features"="+cx8,+fxsr,+mmx,+sse,+sse2,+x87" "unsafe-fp-math"="false" "use-soft-float"="false" }
attributes #2 = { nounwind "correctly-rounded-divide-sqrt-fp-math"="false" "disable-tail-calls"="false" "frame-pointer"="all" "less-precise-fpmad"="false" "no-infs-fp-math"="false" "no-nans-fp-math"="false" "no-signed-zeros-fp-math"="false" "no-trapping-math"="false" "stack-protector-buffer-size"="8" "target-cpu"="x86-64" "target-features"="+cx8,+fxsr,+mmx,+sse,+sse2,+x87" "unsafe-fp-math"="false" "use-soft-float"="false" }
attributes #3 = { nounwind }
attributes #4 = { noinline norecurse uwtable "correctly-rounded-divide-sqrt-fp-math"="false" "disable-tail-calls"="false" "frame-pointer"="all" "less-precise-fpmad"="false" "min-legal-vector-width"="0" "no-infs-fp-math"="false" "no-jump-tables"="false" "no-nans-fp-math"="false" "no-signed-zeros-fp-math"="false" "no-trapping-math"="false" "stack-protector-buffer-size"="8" "target-cpu"="x86-64" "target-features"="+cx8,+fxsr,+mmx,+sse,+sse2,+x87" "unsafe-fp-math"="false" "use-soft-float"="false" }

!llvm.module.flags = !{!0}
!llvm.ident = !{!1}

!0 = !{i32 1, !"wchar_size", i32 4}
!1 = !{!"clang version 10.0.0-4ubuntu1 "}
*** IR Dump Before Expand Atomic instructions ***
; Function Attrs: noinline uwtable
define internal void @__cxx_global_var_init() #0 section ".text.startup" {
  call void @_ZNSt8ios_base4InitC1Ev(%"class.std::ios_base::Init"* @_ZStL8__ioinit)
  %1 = call i32 @__cxa_atexit(void (i8*)* bitcast (void (%"class.std::ios_base::Init"*)* @_ZNSt8ios_base4InitD1Ev to void (i8*)*), i8* getelementptr inbounds (%"class.std::ios_base::Init", %"class.std::ios_base::Init"* @_ZStL8__ioinit, i32 0, i32 0), i8* @__dso_handle) #3
  ret void
}
*** IR Dump After Expand Atomic instructions ***
; Function Attrs: noinline uwtable
define internal void @__cxx_global_var_init() #0 section ".text.startup" {
  call void @_ZNSt8ios_base4InitC1Ev(%"class.std::ios_base::Init"* @_ZStL8__ioinit)
  %1 = call i32 @__cxa_atexit(void (i8*)* bitcast (void (%"class.std::ios_base::Init"*)* @_ZNSt8ios_base4InitD1Ev to void (i8*)*), i8* getelementptr inbounds (%"class.std::ios_base::Init", %"class.std::ios_base::Init"* @_ZStL8__ioinit, i32 0, i32 0), i8* @__dso_handle) #3
  ret void
}
*** IR Dump Before Module Verifier ***
; Function Attrs: noinline uwtable
define internal void @__cxx_global_var_init() #0 section ".text.startup" {
  call void @_ZNSt8ios_base4InitC1Ev(%"class.std::ios_base::Init"* @_ZStL8__ioinit)
  %1 = call i32 @__cxa_atexit(void (i8*)* bitcast (void (%"class.std::ios_base::Init"*)* @_ZNSt8ios_base4InitD1Ev to void (i8*)*), i8* getelementptr inbounds (%"class.std::ios_base::Init", %"class.std::ios_base::Init"* @_ZStL8__ioinit, i32 0, i32 0), i8* @__dso_handle) #3
  ret void
}
*** IR Dump After Module Verifier ***
; Function Attrs: noinline uwtable
define internal void @__cxx_global_var_init() #0 section ".text.startup" {
  call void @_ZNSt8ios_base4InitC1Ev(%"class.std::ios_base::Init"* @_ZStL8__ioinit)
  %1 = call i32 @__cxa_atexit(void (i8*)* bitcast (void (%"class.std::ios_base::Init"*)* @_ZNSt8ios_base4InitD1Ev to void (i8*)*), i8* getelementptr inbounds (%"class.std::ios_base::Init", %"class.std::ios_base::Init"* @_ZStL8__ioinit, i32 0, i32 0), i8* @__dso_handle) #3
  ret void
}
*** IR Dump Before Canonicalize natural loops ***
; Function Attrs: noinline uwtable
define internal void @__cxx_global_var_init() #0 section ".text.startup" {
  call void @_ZNSt8ios_base4InitC1Ev(%"class.std::ios_base::Init"* @_ZStL8__ioinit)
  %1 = call i32 @__cxa_atexit(void (i8*)* bitcast (void (%"class.std::ios_base::Init"*)* @_ZNSt8ios_base4InitD1Ev to void (i8*)*), i8* getelementptr inbounds (%"class.std::ios_base::Init", %"class.std::ios_base::Init"* @_ZStL8__ioinit, i32 0, i32 0), i8* @__dso_handle) #3
  ret void
}
*** IR Dump After Canonicalize natural loops ***
; Function Attrs: noinline uwtable
define internal void @__cxx_global_var_init() #0 section ".text.startup" {
  call void @_ZNSt8ios_base4InitC1Ev(%"class.std::ios_base::Init"* @_ZStL8__ioinit)
  %1 = call i32 @__cxa_atexit(void (i8*)* bitcast (void (%"class.std::ios_base::Init"*)* @_ZNSt8ios_base4InitD1Ev to void (i8*)*), i8* getelementptr inbounds (%"class.std::ios_base::Init", %"class.std::ios_base::Init"* @_ZStL8__ioinit, i32 0, i32 0), i8* @__dso_handle) #3
  ret void
}
*** IR Dump Before Merge contiguous icmps into a memcmp ***
; Function Attrs: noinline uwtable
define internal void @__cxx_global_var_init() #0 section ".text.startup" {
  call void @_ZNSt8ios_base4InitC1Ev(%"class.std::ios_base::Init"* @_ZStL8__ioinit)
  %1 = call i32 @__cxa_atexit(void (i8*)* bitcast (void (%"class.std::ios_base::Init"*)* @_ZNSt8ios_base4InitD1Ev to void (i8*)*), i8* getelementptr inbounds (%"class.std::ios_base::Init", %"class.std::ios_base::Init"* @_ZStL8__ioinit, i32 0, i32 0), i8* @__dso_handle) #3
  ret void
}
*** IR Dump After Merge contiguous icmps into a memcmp ***
; Function Attrs: noinline uwtable
define internal void @__cxx_global_var_init() #0 section ".text.startup" {
  call void @_ZNSt8ios_base4InitC1Ev(%"class.std::ios_base::Init"* @_ZStL8__ioinit)
  %1 = call i32 @__cxa_atexit(void (i8*)* bitcast (void (%"class.std::ios_base::Init"*)* @_ZNSt8ios_base4InitD1Ev to void (i8*)*), i8* getelementptr inbounds (%"class.std::ios_base::Init", %"class.std::ios_base::Init"* @_ZStL8__ioinit, i32 0, i32 0), i8* @__dso_handle) #3
  ret void
}
*** IR Dump Before Expand memcmp() to load/stores ***
; Function Attrs: noinline uwtable
define internal void @__cxx_global_var_init() #0 section ".text.startup" {
  call void @_ZNSt8ios_base4InitC1Ev(%"class.std::ios_base::Init"* @_ZStL8__ioinit)
  %1 = call i32 @__cxa_atexit(void (i8*)* bitcast (void (%"class.std::ios_base::Init"*)* @_ZNSt8ios_base4InitD1Ev to void (i8*)*), i8* getelementptr inbounds (%"class.std::ios_base::Init", %"class.std::ios_base::Init"* @_ZStL8__ioinit, i32 0, i32 0), i8* @__dso_handle) #3
  ret void
}
*** IR Dump After Expand memcmp() to load/stores ***
; Function Attrs: noinline uwtable
define internal void @__cxx_global_var_init() #0 section ".text.startup" {
  call void @_ZNSt8ios_base4InitC1Ev(%"class.std::ios_base::Init"* @_ZStL8__ioinit)
  %1 = call i32 @__cxa_atexit(void (i8*)* bitcast (void (%"class.std::ios_base::Init"*)* @_ZNSt8ios_base4InitD1Ev to void (i8*)*), i8* getelementptr inbounds (%"class.std::ios_base::Init", %"class.std::ios_base::Init"* @_ZStL8__ioinit, i32 0, i32 0), i8* @__dso_handle) #3
  ret void
}
*** IR Dump Before Lower Garbage Collection Instructions ***
; Function Attrs: noinline uwtable
define internal void @__cxx_global_var_init() #0 section ".text.startup" {
  call void @_ZNSt8ios_base4InitC1Ev(%"class.std::ios_base::Init"* @_ZStL8__ioinit)
  %1 = call i32 @__cxa_atexit(void (i8*)* bitcast (void (%"class.std::ios_base::Init"*)* @_ZNSt8ios_base4InitD1Ev to void (i8*)*), i8* getelementptr inbounds (%"class.std::ios_base::Init", %"class.std::ios_base::Init"* @_ZStL8__ioinit, i32 0, i32 0), i8* @__dso_handle) #3
  ret void
}
*** IR Dump After Lower Garbage Collection Instructions ***
; Function Attrs: noinline uwtable
define internal void @__cxx_global_var_init() #0 section ".text.startup" {
  call void @_ZNSt8ios_base4InitC1Ev(%"class.std::ios_base::Init"* @_ZStL8__ioinit)
  %1 = call i32 @__cxa_atexit(void (i8*)* bitcast (void (%"class.std::ios_base::Init"*)* @_ZNSt8ios_base4InitD1Ev to void (i8*)*), i8* getelementptr inbounds (%"class.std::ios_base::Init", %"class.std::ios_base::Init"* @_ZStL8__ioinit, i32 0, i32 0), i8* @__dso_handle) #3
  ret void
}
*** IR Dump Before Shadow Stack GC Lowering ***
; Function Attrs: noinline uwtable
define internal void @__cxx_global_var_init() #0 section ".text.startup" {
  call void @_ZNSt8ios_base4InitC1Ev(%"class.std::ios_base::Init"* @_ZStL8__ioinit)
  %1 = call i32 @__cxa_atexit(void (i8*)* bitcast (void (%"class.std::ios_base::Init"*)* @_ZNSt8ios_base4InitD1Ev to void (i8*)*), i8* getelementptr inbounds (%"class.std::ios_base::Init", %"class.std::ios_base::Init"* @_ZStL8__ioinit, i32 0, i32 0), i8* @__dso_handle) #3
  ret void
}
*** IR Dump After Shadow Stack GC Lowering ***
; Function Attrs: noinline uwtable
define internal void @__cxx_global_var_init() #0 section ".text.startup" {
  call void @_ZNSt8ios_base4InitC1Ev(%"class.std::ios_base::Init"* @_ZStL8__ioinit)
  %1 = call i32 @__cxa_atexit(void (i8*)* bitcast (void (%"class.std::ios_base::Init"*)* @_ZNSt8ios_base4InitD1Ev to void (i8*)*), i8* getelementptr inbounds (%"class.std::ios_base::Init", %"class.std::ios_base::Init"* @_ZStL8__ioinit, i32 0, i32 0), i8* @__dso_handle) #3
  ret void
}
*** IR Dump Before Lower constant intrinsics ***
; Function Attrs: noinline uwtable
define internal void @__cxx_global_var_init() #0 section ".text.startup" {
  call void @_ZNSt8ios_base4InitC1Ev(%"class.std::ios_base::Init"* @_ZStL8__ioinit)
  %1 = call i32 @__cxa_atexit(void (i8*)* bitcast (void (%"class.std::ios_base::Init"*)* @_ZNSt8ios_base4InitD1Ev to void (i8*)*), i8* getelementptr inbounds (%"class.std::ios_base::Init", %"class.std::ios_base::Init"* @_ZStL8__ioinit, i32 0, i32 0), i8* @__dso_handle) #3
  ret void
}
*** IR Dump After Lower constant intrinsics ***
; Function Attrs: noinline uwtable
define internal void @__cxx_global_var_init() #0 section ".text.startup" {
  call void @_ZNSt8ios_base4InitC1Ev(%"class.std::ios_base::Init"* @_ZStL8__ioinit)
  %1 = call i32 @__cxa_atexit(void (i8*)* bitcast (void (%"class.std::ios_base::Init"*)* @_ZNSt8ios_base4InitD1Ev to void (i8*)*), i8* getelementptr inbounds (%"class.std::ios_base::Init", %"class.std::ios_base::Init"* @_ZStL8__ioinit, i32 0, i32 0), i8* @__dso_handle) #3
  ret void
}
*** IR Dump Before Remove unreachable blocks from the CFG ***
; Function Attrs: noinline uwtable
define internal void @__cxx_global_var_init() #0 section ".text.startup" {
  call void @_ZNSt8ios_base4InitC1Ev(%"class.std::ios_base::Init"* @_ZStL8__ioinit)
  %1 = call i32 @__cxa_atexit(void (i8*)* bitcast (void (%"class.std::ios_base::Init"*)* @_ZNSt8ios_base4InitD1Ev to void (i8*)*), i8* getelementptr inbounds (%"class.std::ios_base::Init", %"class.std::ios_base::Init"* @_ZStL8__ioinit, i32 0, i32 0), i8* @__dso_handle) #3
  ret void
}
*** IR Dump After Remove unreachable blocks from the CFG ***
; Function Attrs: noinline uwtable
define internal void @__cxx_global_var_init() #0 section ".text.startup" {
  call void @_ZNSt8ios_base4InitC1Ev(%"class.std::ios_base::Init"* @_ZStL8__ioinit)
  %1 = call i32 @__cxa_atexit(void (i8*)* bitcast (void (%"class.std::ios_base::Init"*)* @_ZNSt8ios_base4InitD1Ev to void (i8*)*), i8* getelementptr inbounds (%"class.std::ios_base::Init", %"class.std::ios_base::Init"* @_ZStL8__ioinit, i32 0, i32 0), i8* @__dso_handle) #3
  ret void
}
*** IR Dump Before Constant Hoisting ***
; Function Attrs: noinline uwtable
define internal void @__cxx_global_var_init() #0 section ".text.startup" {
  call void @_ZNSt8ios_base4InitC1Ev(%"class.std::ios_base::Init"* @_ZStL8__ioinit)
  %1 = call i32 @__cxa_atexit(void (i8*)* bitcast (void (%"class.std::ios_base::Init"*)* @_ZNSt8ios_base4InitD1Ev to void (i8*)*), i8* getelementptr inbounds (%"class.std::ios_base::Init", %"class.std::ios_base::Init"* @_ZStL8__ioinit, i32 0, i32 0), i8* @__dso_handle) #3
  ret void
}
*** IR Dump After Constant Hoisting ***
; Function Attrs: noinline uwtable
define internal void @__cxx_global_var_init() #0 section ".text.startup" {
  call void @_ZNSt8ios_base4InitC1Ev(%"class.std::ios_base::Init"* @_ZStL8__ioinit)
  %1 = call i32 @__cxa_atexit(void (i8*)* bitcast (void (%"class.std::ios_base::Init"*)* @_ZNSt8ios_base4InitD1Ev to void (i8*)*), i8* getelementptr inbounds (%"class.std::ios_base::Init", %"class.std::ios_base::Init"* @_ZStL8__ioinit, i32 0, i32 0), i8* @__dso_handle) #3
  ret void
}
*** IR Dump Before Partially inline calls to library functions ***
; Function Attrs: noinline uwtable
define internal void @__cxx_global_var_init() #0 section ".text.startup" {
  call void @_ZNSt8ios_base4InitC1Ev(%"class.std::ios_base::Init"* @_ZStL8__ioinit)
  %1 = call i32 @__cxa_atexit(void (i8*)* bitcast (void (%"class.std::ios_base::Init"*)* @_ZNSt8ios_base4InitD1Ev to void (i8*)*), i8* getelementptr inbounds (%"class.std::ios_base::Init", %"class.std::ios_base::Init"* @_ZStL8__ioinit, i32 0, i32 0), i8* @__dso_handle) #3
  ret void
}
*** IR Dump After Partially inline calls to library functions ***
; Function Attrs: noinline uwtable
define internal void @__cxx_global_var_init() #0 section ".text.startup" {
  call void @_ZNSt8ios_base4InitC1Ev(%"class.std::ios_base::Init"* @_ZStL8__ioinit)
  %1 = call i32 @__cxa_atexit(void (i8*)* bitcast (void (%"class.std::ios_base::Init"*)* @_ZNSt8ios_base4InitD1Ev to void (i8*)*), i8* getelementptr inbounds (%"class.std::ios_base::Init", %"class.std::ios_base::Init"* @_ZStL8__ioinit, i32 0, i32 0), i8* @__dso_handle) #3
  ret void
}
*** IR Dump Before Instrument function entry/exit with calls to e.g. mcount() (post inlining) ***
; Function Attrs: noinline uwtable
define internal void @__cxx_global_var_init() #0 section ".text.startup" {
  call void @_ZNSt8ios_base4InitC1Ev(%"class.std::ios_base::Init"* @_ZStL8__ioinit)
  %1 = call i32 @__cxa_atexit(void (i8*)* bitcast (void (%"class.std::ios_base::Init"*)* @_ZNSt8ios_base4InitD1Ev to void (i8*)*), i8* getelementptr inbounds (%"class.std::ios_base::Init", %"class.std::ios_base::Init"* @_ZStL8__ioinit, i32 0, i32 0), i8* @__dso_handle) #3
  ret void
}
*** IR Dump After Instrument function entry/exit with calls to e.g. mcount() (post inlining) ***
; Function Attrs: noinline uwtable
define internal void @__cxx_global_var_init() #0 section ".text.startup" {
  call void @_ZNSt8ios_base4InitC1Ev(%"class.std::ios_base::Init"* @_ZStL8__ioinit)
  %1 = call i32 @__cxa_atexit(void (i8*)* bitcast (void (%"class.std::ios_base::Init"*)* @_ZNSt8ios_base4InitD1Ev to void (i8*)*), i8* getelementptr inbounds (%"class.std::ios_base::Init", %"class.std::ios_base::Init"* @_ZStL8__ioinit, i32 0, i32 0), i8* @__dso_handle) #3
  ret void
}
*** IR Dump Before Scalarize Masked Memory Intrinsics ***
; Function Attrs: noinline uwtable
define internal void @__cxx_global_var_init() #0 section ".text.startup" {
  call void @_ZNSt8ios_base4InitC1Ev(%"class.std::ios_base::Init"* @_ZStL8__ioinit)
  %1 = call i32 @__cxa_atexit(void (i8*)* bitcast (void (%"class.std::ios_base::Init"*)* @_ZNSt8ios_base4InitD1Ev to void (i8*)*), i8* getelementptr inbounds (%"class.std::ios_base::Init", %"class.std::ios_base::Init"* @_ZStL8__ioinit, i32 0, i32 0), i8* @__dso_handle) #3
  ret void
}
*** IR Dump After Scalarize Masked Memory Intrinsics ***
; Function Attrs: noinline uwtable
define internal void @__cxx_global_var_init() #0 section ".text.startup" {
  call void @_ZNSt8ios_base4InitC1Ev(%"class.std::ios_base::Init"* @_ZStL8__ioinit)
  %1 = call i32 @__cxa_atexit(void (i8*)* bitcast (void (%"class.std::ios_base::Init"*)* @_ZNSt8ios_base4InitD1Ev to void (i8*)*), i8* getelementptr inbounds (%"class.std::ios_base::Init", %"class.std::ios_base::Init"* @_ZStL8__ioinit, i32 0, i32 0), i8* @__dso_handle) #3
  ret void
}
*** IR Dump Before Expand reduction intrinsics ***
; Function Attrs: noinline uwtable
define internal void @__cxx_global_var_init() #0 section ".text.startup" {
  call void @_ZNSt8ios_base4InitC1Ev(%"class.std::ios_base::Init"* @_ZStL8__ioinit)
  %1 = call i32 @__cxa_atexit(void (i8*)* bitcast (void (%"class.std::ios_base::Init"*)* @_ZNSt8ios_base4InitD1Ev to void (i8*)*), i8* getelementptr inbounds (%"class.std::ios_base::Init", %"class.std::ios_base::Init"* @_ZStL8__ioinit, i32 0, i32 0), i8* @__dso_handle) #3
  ret void
}
*** IR Dump After Expand reduction intrinsics ***
; Function Attrs: noinline uwtable
define internal void @__cxx_global_var_init() #0 section ".text.startup" {
  call void @_ZNSt8ios_base4InitC1Ev(%"class.std::ios_base::Init"* @_ZStL8__ioinit)
  %1 = call i32 @__cxa_atexit(void (i8*)* bitcast (void (%"class.std::ios_base::Init"*)* @_ZNSt8ios_base4InitD1Ev to void (i8*)*), i8* getelementptr inbounds (%"class.std::ios_base::Init", %"class.std::ios_base::Init"* @_ZStL8__ioinit, i32 0, i32 0), i8* @__dso_handle) #3
  ret void
}
*** IR Dump Before Interleaved Access Pass ***
; Function Attrs: noinline uwtable
define internal void @__cxx_global_var_init() #0 section ".text.startup" {
  call void @_ZNSt8ios_base4InitC1Ev(%"class.std::ios_base::Init"* @_ZStL8__ioinit)
  %1 = call i32 @__cxa_atexit(void (i8*)* bitcast (void (%"class.std::ios_base::Init"*)* @_ZNSt8ios_base4InitD1Ev to void (i8*)*), i8* getelementptr inbounds (%"class.std::ios_base::Init", %"class.std::ios_base::Init"* @_ZStL8__ioinit, i32 0, i32 0), i8* @__dso_handle) #3
  ret void
}
*** IR Dump After Interleaved Access Pass ***
; Function Attrs: noinline uwtable
define internal void @__cxx_global_var_init() #0 section ".text.startup" {
  call void @_ZNSt8ios_base4InitC1Ev(%"class.std::ios_base::Init"* @_ZStL8__ioinit)
  %1 = call i32 @__cxa_atexit(void (i8*)* bitcast (void (%"class.std::ios_base::Init"*)* @_ZNSt8ios_base4InitD1Ev to void (i8*)*), i8* getelementptr inbounds (%"class.std::ios_base::Init", %"class.std::ios_base::Init"* @_ZStL8__ioinit, i32 0, i32 0), i8* @__dso_handle) #3
  ret void
}
*** IR Dump Before Expand indirectbr instructions ***
; Function Attrs: noinline uwtable
define internal void @__cxx_global_var_init() #0 section ".text.startup" {
  call void @_ZNSt8ios_base4InitC1Ev(%"class.std::ios_base::Init"* @_ZStL8__ioinit)
  %1 = call i32 @__cxa_atexit(void (i8*)* bitcast (void (%"class.std::ios_base::Init"*)* @_ZNSt8ios_base4InitD1Ev to void (i8*)*), i8* getelementptr inbounds (%"class.std::ios_base::Init", %"class.std::ios_base::Init"* @_ZStL8__ioinit, i32 0, i32 0), i8* @__dso_handle) #3
  ret void
}
*** IR Dump After Expand indirectbr instructions ***
; Function Attrs: noinline uwtable
define internal void @__cxx_global_var_init() #0 section ".text.startup" {
  call void @_ZNSt8ios_base4InitC1Ev(%"class.std::ios_base::Init"* @_ZStL8__ioinit)
  %1 = call i32 @__cxa_atexit(void (i8*)* bitcast (void (%"class.std::ios_base::Init"*)* @_ZNSt8ios_base4InitD1Ev to void (i8*)*), i8* getelementptr inbounds (%"class.std::ios_base::Init", %"class.std::ios_base::Init"* @_ZStL8__ioinit, i32 0, i32 0), i8* @__dso_handle) #3
  ret void
}
*** IR Dump Before CodeGen Prepare ***
; Function Attrs: noinline uwtable
define internal void @__cxx_global_var_init() #0 section ".text.startup" {
  call void @_ZNSt8ios_base4InitC1Ev(%"class.std::ios_base::Init"* @_ZStL8__ioinit)
  %1 = call i32 @__cxa_atexit(void (i8*)* bitcast (void (%"class.std::ios_base::Init"*)* @_ZNSt8ios_base4InitD1Ev to void (i8*)*), i8* getelementptr inbounds (%"class.std::ios_base::Init", %"class.std::ios_base::Init"* @_ZStL8__ioinit, i32 0, i32 0), i8* @__dso_handle) #3
  ret void
}
*** IR Dump After CodeGen Prepare ***
; Function Attrs: noinline uwtable
define internal void @__cxx_global_var_init() #0 section ".text.startup" {
  call void @_ZNSt8ios_base4InitC1Ev(%"class.std::ios_base::Init"* @_ZStL8__ioinit)
  %1 = call i32 @__cxa_atexit(void (i8*)* bitcast (void (%"class.std::ios_base::Init"*)* @_ZNSt8ios_base4InitD1Ev to void (i8*)*), i8* getelementptr inbounds (%"class.std::ios_base::Init", %"class.std::ios_base::Init"* @_ZStL8__ioinit, i32 0, i32 0), i8* @__dso_handle) #3
  ret void
}
*** IR Dump Before Expand Atomic instructions ***
; Function Attrs: noinline norecurse uwtable
define dso_local i32 @main() #4 {
  %1 = alloca i32, align 4
  %2 = alloca i32, align 4
  %3 = alloca i32, align 4
  %4 = alloca i32, align 4
  store i32 0, i32* %1, align 4
  %5 = call dereferenceable(280) %"class.std::basic_istream"* @_ZNSirsERi(%"class.std::basic_istream"* @_ZSt3cin, i32* dereferenceable(4) %3)
  store i32 2, i32* %2, align 4
  store i32 1, i32* %4, align 4
  br label %6

6:                                                ; preds = %10, %0
  %7 = load i32, i32* %2, align 4
  %8 = load i32, i32* %3, align 4
  %9 = icmp sle i32 %7, %8
  br i1 %9, label %10, label %16

10:                                               ; preds = %6
  %11 = load i32, i32* %4, align 4
  %12 = load i32, i32* %2, align 4
  %13 = mul nsw i32 %11, %12
  store i32 %13, i32* %4, align 4
  %14 = load i32, i32* %2, align 4
  %15 = add nsw i32 %14, 1
  store i32 %15, i32* %2, align 4
  br label %6

16:                                               ; preds = %6
  %17 = load i32, i32* %4, align 4
  %18 = call dereferenceable(272) %"class.std::basic_ostream"* @_ZNSolsEi(%"class.std::basic_ostream"* @_ZSt4cout, i32 %17)
  %19 = call dereferenceable(272) %"class.std::basic_ostream"* @_ZNSolsEPFRSoS_E(%"class.std::basic_ostream"* %18, %"class.std::basic_ostream"* (%"class.std::basic_ostream"*)* @_ZSt4endlIcSt11char_traitsIcEERSt13basic_ostreamIT_T0_ES6_)
  ret i32 0
}
*** IR Dump After Expand Atomic instructions ***
; Function Attrs: noinline norecurse uwtable
define dso_local i32 @main() #4 {
  %1 = alloca i32, align 4
  %2 = alloca i32, align 4
  %3 = alloca i32, align 4
  %4 = alloca i32, align 4
  store i32 0, i32* %1, align 4
  %5 = call dereferenceable(280) %"class.std::basic_istream"* @_ZNSirsERi(%"class.std::basic_istream"* @_ZSt3cin, i32* dereferenceable(4) %3)
  store i32 2, i32* %2, align 4
  store i32 1, i32* %4, align 4
  br label %6

6:                                                ; preds = %10, %0
  %7 = load i32, i32* %2, align 4
  %8 = load i32, i32* %3, align 4
  %9 = icmp sle i32 %7, %8
  br i1 %9, label %10, label %16

10:                                               ; preds = %6
  %11 = load i32, i32* %4, align 4
  %12 = load i32, i32* %2, align 4
  %13 = mul nsw i32 %11, %12
  store i32 %13, i32* %4, align 4
  %14 = load i32, i32* %2, align 4
  %15 = add nsw i32 %14, 1
  store i32 %15, i32* %2, align 4
  br label %6

16:                                               ; preds = %6
  %17 = load i32, i32* %4, align 4
  %18 = call dereferenceable(272) %"class.std::basic_ostream"* @_ZNSolsEi(%"class.std::basic_ostream"* @_ZSt4cout, i32 %17)
  %19 = call dereferenceable(272) %"class.std::basic_ostream"* @_ZNSolsEPFRSoS_E(%"class.std::basic_ostream"* %18, %"class.std::basic_ostream"* (%"class.std::basic_ostream"*)* @_ZSt4endlIcSt11char_traitsIcEERSt13basic_ostreamIT_T0_ES6_)
  ret i32 0
}
*** IR Dump Before Module Verifier ***
; Function Attrs: noinline norecurse uwtable
define dso_local i32 @main() #4 {
  %1 = alloca i32, align 4
  %2 = alloca i32, align 4
  %3 = alloca i32, align 4
  %4 = alloca i32, align 4
  store i32 0, i32* %1, align 4
  %5 = call dereferenceable(280) %"class.std::basic_istream"* @_ZNSirsERi(%"class.std::basic_istream"* @_ZSt3cin, i32* dereferenceable(4) %3)
  store i32 2, i32* %2, align 4
  store i32 1, i32* %4, align 4
  br label %6

6:                                                ; preds = %10, %0
  %7 = load i32, i32* %2, align 4
  %8 = load i32, i32* %3, align 4
  %9 = icmp sle i32 %7, %8
  br i1 %9, label %10, label %16

10:                                               ; preds = %6
  %11 = load i32, i32* %4, align 4
  %12 = load i32, i32* %2, align 4
  %13 = mul nsw i32 %11, %12
  store i32 %13, i32* %4, align 4
  %14 = load i32, i32* %2, align 4
  %15 = add nsw i32 %14, 1
  store i32 %15, i32* %2, align 4
  br label %6

16:                                               ; preds = %6
  %17 = load i32, i32* %4, align 4
  %18 = call dereferenceable(272) %"class.std::basic_ostream"* @_ZNSolsEi(%"class.std::basic_ostream"* @_ZSt4cout, i32 %17)
  %19 = call dereferenceable(272) %"class.std::basic_ostream"* @_ZNSolsEPFRSoS_E(%"class.std::basic_ostream"* %18, %"class.std::basic_ostream"* (%"class.std::basic_ostream"*)* @_ZSt4endlIcSt11char_traitsIcEERSt13basic_ostreamIT_T0_ES6_)
  ret i32 0
}
*** IR Dump After Module Verifier ***
; Function Attrs: noinline norecurse uwtable
define dso_local i32 @main() #4 {
  %1 = alloca i32, align 4
  %2 = alloca i32, align 4
  %3 = alloca i32, align 4
  %4 = alloca i32, align 4
  store i32 0, i32* %1, align 4
  %5 = call dereferenceable(280) %"class.std::basic_istream"* @_ZNSirsERi(%"class.std::basic_istream"* @_ZSt3cin, i32* dereferenceable(4) %3)
  store i32 2, i32* %2, align 4
  store i32 1, i32* %4, align 4
  br label %6

6:                                                ; preds = %10, %0
  %7 = load i32, i32* %2, align 4
  %8 = load i32, i32* %3, align 4
  %9 = icmp sle i32 %7, %8
  br i1 %9, label %10, label %16

10:                                               ; preds = %6
  %11 = load i32, i32* %4, align 4
  %12 = load i32, i32* %2, align 4
  %13 = mul nsw i32 %11, %12
  store i32 %13, i32* %4, align 4
  %14 = load i32, i32* %2, align 4
  %15 = add nsw i32 %14, 1
  store i32 %15, i32* %2, align 4
  br label %6

16:                                               ; preds = %6
  %17 = load i32, i32* %4, align 4
  %18 = call dereferenceable(272) %"class.std::basic_ostream"* @_ZNSolsEi(%"class.std::basic_ostream"* @_ZSt4cout, i32 %17)
  %19 = call dereferenceable(272) %"class.std::basic_ostream"* @_ZNSolsEPFRSoS_E(%"class.std::basic_ostream"* %18, %"class.std::basic_ostream"* (%"class.std::basic_ostream"*)* @_ZSt4endlIcSt11char_traitsIcEERSt13basic_ostreamIT_T0_ES6_)
  ret i32 0
}
*** IR Dump Before Canonicalize natural loops ***
; Function Attrs: noinline norecurse uwtable
define dso_local i32 @main() #4 {
  %1 = alloca i32, align 4
  %2 = alloca i32, align 4
  %3 = alloca i32, align 4
  %4 = alloca i32, align 4
  store i32 0, i32* %1, align 4
  %5 = call dereferenceable(280) %"class.std::basic_istream"* @_ZNSirsERi(%"class.std::basic_istream"* @_ZSt3cin, i32* dereferenceable(4) %3)
  store i32 2, i32* %2, align 4
  store i32 1, i32* %4, align 4
  br label %6

6:                                                ; preds = %10, %0
  %7 = load i32, i32* %2, align 4
  %8 = load i32, i32* %3, align 4
  %9 = icmp sle i32 %7, %8
  br i1 %9, label %10, label %16

10:                                               ; preds = %6
  %11 = load i32, i32* %4, align 4
  %12 = load i32, i32* %2, align 4
  %13 = mul nsw i32 %11, %12
  store i32 %13, i32* %4, align 4
  %14 = load i32, i32* %2, align 4
  %15 = add nsw i32 %14, 1
  store i32 %15, i32* %2, align 4
  br label %6

16:                                               ; preds = %6
  %17 = load i32, i32* %4, align 4
  %18 = call dereferenceable(272) %"class.std::basic_ostream"* @_ZNSolsEi(%"class.std::basic_ostream"* @_ZSt4cout, i32 %17)
  %19 = call dereferenceable(272) %"class.std::basic_ostream"* @_ZNSolsEPFRSoS_E(%"class.std::basic_ostream"* %18, %"class.std::basic_ostream"* (%"class.std::basic_ostream"*)* @_ZSt4endlIcSt11char_traitsIcEERSt13basic_ostreamIT_T0_ES6_)
  ret i32 0
}
*** IR Dump After Canonicalize natural loops ***
; Function Attrs: noinline norecurse uwtable
define dso_local i32 @main() #4 {
  %1 = alloca i32, align 4
  %2 = alloca i32, align 4
  %3 = alloca i32, align 4
  %4 = alloca i32, align 4
  store i32 0, i32* %1, align 4
  %5 = call dereferenceable(280) %"class.std::basic_istream"* @_ZNSirsERi(%"class.std::basic_istream"* @_ZSt3cin, i32* dereferenceable(4) %3)
  store i32 2, i32* %2, align 4
  store i32 1, i32* %4, align 4
  br label %6

6:                                                ; preds = %10, %0
  %7 = load i32, i32* %2, align 4
  %8 = load i32, i32* %3, align 4
  %9 = icmp sle i32 %7, %8
  br i1 %9, label %10, label %16

10:                                               ; preds = %6
  %11 = load i32, i32* %4, align 4
  %12 = load i32, i32* %2, align 4
  %13 = mul nsw i32 %11, %12
  store i32 %13, i32* %4, align 4
  %14 = load i32, i32* %2, align 4
  %15 = add nsw i32 %14, 1
  store i32 %15, i32* %2, align 4
  br label %6

16:                                               ; preds = %6
  %17 = load i32, i32* %4, align 4
  %18 = call dereferenceable(272) %"class.std::basic_ostream"* @_ZNSolsEi(%"class.std::basic_ostream"* @_ZSt4cout, i32 %17)
  %19 = call dereferenceable(272) %"class.std::basic_ostream"* @_ZNSolsEPFRSoS_E(%"class.std::basic_ostream"* %18, %"class.std::basic_ostream"* (%"class.std::basic_ostream"*)* @_ZSt4endlIcSt11char_traitsIcEERSt13basic_ostreamIT_T0_ES6_)
  ret i32 0
}
*** IR Dump Before Loop Strength Reduction ***
; Preheader:
  %1 = alloca i32, align 4
  %2 = alloca i32, align 4
  %3 = alloca i32, align 4
  %4 = alloca i32, align 4
  store i32 0, i32* %1, align 4
  %5 = call dereferenceable(280) %"class.std::basic_istream"* @_ZNSirsERi(%"class.std::basic_istream"* @_ZSt3cin, i32* dereferenceable(4) %3)
  store i32 2, i32* %2, align 4
  store i32 1, i32* %4, align 4
  br label %6

; Loop:
6:                                                ; preds = %10, %0
  %7 = load i32, i32* %2, align 4
  %8 = load i32, i32* %3, align 4
  %9 = icmp sle i32 %7, %8
  br i1 %9, label %10, label %16

10:                                               ; preds = %6
  %11 = load i32, i32* %4, align 4
  %12 = load i32, i32* %2, align 4
  %13 = mul nsw i32 %11, %12
  store i32 %13, i32* %4, align 4
  %14 = load i32, i32* %2, align 4
  %15 = add nsw i32 %14, 1
  store i32 %15, i32* %2, align 4
  br label %6

; Exit blocks
16:                                               ; preds = %6
  %17 = load i32, i32* %4, align 4
  %18 = call dereferenceable(272) %"class.std::basic_ostream"* @_ZNSolsEi(%"class.std::basic_ostream"* @_ZSt4cout, i32 %17)
  %19 = call dereferenceable(272) %"class.std::basic_ostream"* @_ZNSolsEPFRSoS_E(%"class.std::basic_ostream"* %18, %"class.std::basic_ostream"* (%"class.std::basic_ostream"*)* @_ZSt4endlIcSt11char_traitsIcEERSt13basic_ostreamIT_T0_ES6_)
  ret i32 0
*** IR Dump After Loop Strength Reduction ***
; Preheader:
  %1 = alloca i32, align 4
  %2 = alloca i32, align 4
  %3 = alloca i32, align 4
  %4 = alloca i32, align 4
  store i32 0, i32* %1, align 4
  %5 = call dereferenceable(280) %"class.std::basic_istream"* @_ZNSirsERi(%"class.std::basic_istream"* @_ZSt3cin, i32* dereferenceable(4) %3)
  store i32 2, i32* %2, align 4
  store i32 1, i32* %4, align 4
  br label %6

; Loop:
6:                                                ; preds = %10, %0
  %7 = load i32, i32* %2, align 4
  %8 = load i32, i32* %3, align 4
  %9 = icmp sle i32 %7, %8
  br i1 %9, label %10, label %16

10:                                               ; preds = %6
  %11 = load i32, i32* %4, align 4
  %12 = load i32, i32* %2, align 4
  %13 = mul nsw i32 %11, %12
  store i32 %13, i32* %4, align 4
  %14 = load i32, i32* %2, align 4
  %15 = add nsw i32 %14, 1
  store i32 %15, i32* %2, align 4
  br label %6

; Exit blocks
16:                                               ; preds = %6
  %17 = load i32, i32* %4, align 4
  %18 = call dereferenceable(272) %"class.std::basic_ostream"* @_ZNSolsEi(%"class.std::basic_ostream"* @_ZSt4cout, i32 %17)
  %19 = call dereferenceable(272) %"class.std::basic_ostream"* @_ZNSolsEPFRSoS_E(%"class.std::basic_ostream"* %18, %"class.std::basic_ostream"* (%"class.std::basic_ostream"*)* @_ZSt4endlIcSt11char_traitsIcEERSt13basic_ostreamIT_T0_ES6_)
  ret i32 0
*** IR Dump Before Merge contiguous icmps into a memcmp ***
; Function Attrs: noinline norecurse uwtable
define dso_local i32 @main() #4 {
  %1 = alloca i32, align 4
  %2 = alloca i32, align 4
  %3 = alloca i32, align 4
  %4 = alloca i32, align 4
  store i32 0, i32* %1, align 4
  %5 = call dereferenceable(280) %"class.std::basic_istream"* @_ZNSirsERi(%"class.std::basic_istream"* @_ZSt3cin, i32* dereferenceable(4) %3)
  store i32 2, i32* %2, align 4
  store i32 1, i32* %4, align 4
  br label %6

6:                                                ; preds = %10, %0
  %7 = load i32, i32* %2, align 4
  %8 = load i32, i32* %3, align 4
  %9 = icmp sle i32 %7, %8
  br i1 %9, label %10, label %16

10:                                               ; preds = %6
  %11 = load i32, i32* %4, align 4
  %12 = load i32, i32* %2, align 4
  %13 = mul nsw i32 %11, %12
  store i32 %13, i32* %4, align 4
  %14 = load i32, i32* %2, align 4
  %15 = add nsw i32 %14, 1
  store i32 %15, i32* %2, align 4
  br label %6

16:                                               ; preds = %6
  %17 = load i32, i32* %4, align 4
  %18 = call dereferenceable(272) %"class.std::basic_ostream"* @_ZNSolsEi(%"class.std::basic_ostream"* @_ZSt4cout, i32 %17)
  %19 = call dereferenceable(272) %"class.std::basic_ostream"* @_ZNSolsEPFRSoS_E(%"class.std::basic_ostream"* %18, %"class.std::basic_ostream"* (%"class.std::basic_ostream"*)* @_ZSt4endlIcSt11char_traitsIcEERSt13basic_ostreamIT_T0_ES6_)
  ret i32 0
}
*** IR Dump After Merge contiguous icmps into a memcmp ***
; Function Attrs: noinline norecurse uwtable
define dso_local i32 @main() #4 {
  %1 = alloca i32, align 4
  %2 = alloca i32, align 4
  %3 = alloca i32, align 4
  %4 = alloca i32, align 4
  store i32 0, i32* %1, align 4
  %5 = call dereferenceable(280) %"class.std::basic_istream"* @_ZNSirsERi(%"class.std::basic_istream"* @_ZSt3cin, i32* dereferenceable(4) %3)
  store i32 2, i32* %2, align 4
  store i32 1, i32* %4, align 4
  br label %6

6:                                                ; preds = %10, %0
  %7 = load i32, i32* %2, align 4
  %8 = load i32, i32* %3, align 4
  %9 = icmp sle i32 %7, %8
  br i1 %9, label %10, label %16

10:                                               ; preds = %6
  %11 = load i32, i32* %4, align 4
  %12 = load i32, i32* %2, align 4
  %13 = mul nsw i32 %11, %12
  store i32 %13, i32* %4, align 4
  %14 = load i32, i32* %2, align 4
  %15 = add nsw i32 %14, 1
  store i32 %15, i32* %2, align 4
  br label %6

16:                                               ; preds = %6
  %17 = load i32, i32* %4, align 4
  %18 = call dereferenceable(272) %"class.std::basic_ostream"* @_ZNSolsEi(%"class.std::basic_ostream"* @_ZSt4cout, i32 %17)
  %19 = call dereferenceable(272) %"class.std::basic_ostream"* @_ZNSolsEPFRSoS_E(%"class.std::basic_ostream"* %18, %"class.std::basic_ostream"* (%"class.std::basic_ostream"*)* @_ZSt4endlIcSt11char_traitsIcEERSt13basic_ostreamIT_T0_ES6_)
  ret i32 0
}
*** IR Dump Before Expand memcmp() to load/stores ***
; Function Attrs: noinline norecurse uwtable
define dso_local i32 @main() #4 {
  %1 = alloca i32, align 4
  %2 = alloca i32, align 4
  %3 = alloca i32, align 4
  %4 = alloca i32, align 4
  store i32 0, i32* %1, align 4
  %5 = call dereferenceable(280) %"class.std::basic_istream"* @_ZNSirsERi(%"class.std::basic_istream"* @_ZSt3cin, i32* dereferenceable(4) %3)
  store i32 2, i32* %2, align 4
  store i32 1, i32* %4, align 4
  br label %6

6:                                                ; preds = %10, %0
  %7 = load i32, i32* %2, align 4
  %8 = load i32, i32* %3, align 4
  %9 = icmp sle i32 %7, %8
  br i1 %9, label %10, label %16

10:                                               ; preds = %6
  %11 = load i32, i32* %4, align 4
  %12 = load i32, i32* %2, align 4
  %13 = mul nsw i32 %11, %12
  store i32 %13, i32* %4, align 4
  %14 = load i32, i32* %2, align 4
  %15 = add nsw i32 %14, 1
  store i32 %15, i32* %2, align 4
  br label %6

16:                                               ; preds = %6
  %17 = load i32, i32* %4, align 4
  %18 = call dereferenceable(272) %"class.std::basic_ostream"* @_ZNSolsEi(%"class.std::basic_ostream"* @_ZSt4cout, i32 %17)
  %19 = call dereferenceable(272) %"class.std::basic_ostream"* @_ZNSolsEPFRSoS_E(%"class.std::basic_ostream"* %18, %"class.std::basic_ostream"* (%"class.std::basic_ostream"*)* @_ZSt4endlIcSt11char_traitsIcEERSt13basic_ostreamIT_T0_ES6_)
  ret i32 0
}
*** IR Dump After Expand memcmp() to load/stores ***
; Function Attrs: noinline norecurse uwtable
define dso_local i32 @main() #4 {
  %1 = alloca i32, align 4
  %2 = alloca i32, align 4
  %3 = alloca i32, align 4
  %4 = alloca i32, align 4
  store i32 0, i32* %1, align 4
  %5 = call dereferenceable(280) %"class.std::basic_istream"* @_ZNSirsERi(%"class.std::basic_istream"* @_ZSt3cin, i32* dereferenceable(4) %3)
  store i32 2, i32* %2, align 4
  store i32 1, i32* %4, align 4
  br label %6

6:                                                ; preds = %10, %0
  %7 = load i32, i32* %2, align 4
  %8 = load i32, i32* %3, align 4
  %9 = icmp sle i32 %7, %8
  br i1 %9, label %10, label %16

10:                                               ; preds = %6
  %11 = load i32, i32* %4, align 4
  %12 = load i32, i32* %2, align 4
  %13 = mul nsw i32 %11, %12
  store i32 %13, i32* %4, align 4
  %14 = load i32, i32* %2, align 4
  %15 = add nsw i32 %14, 1
  store i32 %15, i32* %2, align 4
  br label %6

16:                                               ; preds = %6
  %17 = load i32, i32* %4, align 4
  %18 = call dereferenceable(272) %"class.std::basic_ostream"* @_ZNSolsEi(%"class.std::basic_ostream"* @_ZSt4cout, i32 %17)
  %19 = call dereferenceable(272) %"class.std::basic_ostream"* @_ZNSolsEPFRSoS_E(%"class.std::basic_ostream"* %18, %"class.std::basic_ostream"* (%"class.std::basic_ostream"*)* @_ZSt4endlIcSt11char_traitsIcEERSt13basic_ostreamIT_T0_ES6_)
  ret i32 0
}
*** IR Dump Before Lower Garbage Collection Instructions ***
; Function Attrs: noinline norecurse uwtable
define dso_local i32 @main() #4 {
  %1 = alloca i32, align 4
  %2 = alloca i32, align 4
  %3 = alloca i32, align 4
  %4 = alloca i32, align 4
  store i32 0, i32* %1, align 4
  %5 = call dereferenceable(280) %"class.std::basic_istream"* @_ZNSirsERi(%"class.std::basic_istream"* @_ZSt3cin, i32* dereferenceable(4) %3)
  store i32 2, i32* %2, align 4
  store i32 1, i32* %4, align 4
  br label %6

6:                                                ; preds = %10, %0
  %7 = load i32, i32* %2, align 4
  %8 = load i32, i32* %3, align 4
  %9 = icmp sle i32 %7, %8
  br i1 %9, label %10, label %16

10:                                               ; preds = %6
  %11 = load i32, i32* %4, align 4
  %12 = load i32, i32* %2, align 4
  %13 = mul nsw i32 %11, %12
  store i32 %13, i32* %4, align 4
  %14 = load i32, i32* %2, align 4
  %15 = add nsw i32 %14, 1
  store i32 %15, i32* %2, align 4
  br label %6

16:                                               ; preds = %6
  %17 = load i32, i32* %4, align 4
  %18 = call dereferenceable(272) %"class.std::basic_ostream"* @_ZNSolsEi(%"class.std::basic_ostream"* @_ZSt4cout, i32 %17)
  %19 = call dereferenceable(272) %"class.std::basic_ostream"* @_ZNSolsEPFRSoS_E(%"class.std::basic_ostream"* %18, %"class.std::basic_ostream"* (%"class.std::basic_ostream"*)* @_ZSt4endlIcSt11char_traitsIcEERSt13basic_ostreamIT_T0_ES6_)
  ret i32 0
}
*** IR Dump After Lower Garbage Collection Instructions ***
; Function Attrs: noinline norecurse uwtable
define dso_local i32 @main() #4 {
  %1 = alloca i32, align 4
  %2 = alloca i32, align 4
  %3 = alloca i32, align 4
  %4 = alloca i32, align 4
  store i32 0, i32* %1, align 4
  %5 = call dereferenceable(280) %"class.std::basic_istream"* @_ZNSirsERi(%"class.std::basic_istream"* @_ZSt3cin, i32* dereferenceable(4) %3)
  store i32 2, i32* %2, align 4
  store i32 1, i32* %4, align 4
  br label %6

6:                                                ; preds = %10, %0
  %7 = load i32, i32* %2, align 4
  %8 = load i32, i32* %3, align 4
  %9 = icmp sle i32 %7, %8
  br i1 %9, label %10, label %16

10:                                               ; preds = %6
  %11 = load i32, i32* %4, align 4
  %12 = load i32, i32* %2, align 4
  %13 = mul nsw i32 %11, %12
  store i32 %13, i32* %4, align 4
  %14 = load i32, i32* %2, align 4
  %15 = add nsw i32 %14, 1
  store i32 %15, i32* %2, align 4
  br label %6

16:                                               ; preds = %6
  %17 = load i32, i32* %4, align 4
  %18 = call dereferenceable(272) %"class.std::basic_ostream"* @_ZNSolsEi(%"class.std::basic_ostream"* @_ZSt4cout, i32 %17)
  %19 = call dereferenceable(272) %"class.std::basic_ostream"* @_ZNSolsEPFRSoS_E(%"class.std::basic_ostream"* %18, %"class.std::basic_ostream"* (%"class.std::basic_ostream"*)* @_ZSt4endlIcSt11char_traitsIcEERSt13basic_ostreamIT_T0_ES6_)
  ret i32 0
}
*** IR Dump Before Shadow Stack GC Lowering ***
; Function Attrs: noinline norecurse uwtable
define dso_local i32 @main() #4 {
  %1 = alloca i32, align 4
  %2 = alloca i32, align 4
  %3 = alloca i32, align 4
  %4 = alloca i32, align 4
  store i32 0, i32* %1, align 4
  %5 = call dereferenceable(280) %"class.std::basic_istream"* @_ZNSirsERi(%"class.std::basic_istream"* @_ZSt3cin, i32* dereferenceable(4) %3)
  store i32 2, i32* %2, align 4
  store i32 1, i32* %4, align 4
  br label %6

6:                                                ; preds = %10, %0
  %7 = load i32, i32* %2, align 4
  %8 = load i32, i32* %3, align 4
  %9 = icmp sle i32 %7, %8
  br i1 %9, label %10, label %16

10:                                               ; preds = %6
  %11 = load i32, i32* %4, align 4
  %12 = load i32, i32* %2, align 4
  %13 = mul nsw i32 %11, %12
  store i32 %13, i32* %4, align 4
  %14 = load i32, i32* %2, align 4
  %15 = add nsw i32 %14, 1
  store i32 %15, i32* %2, align 4
  br label %6

16:                                               ; preds = %6
  %17 = load i32, i32* %4, align 4
  %18 = call dereferenceable(272) %"class.std::basic_ostream"* @_ZNSolsEi(%"class.std::basic_ostream"* @_ZSt4cout, i32 %17)
  %19 = call dereferenceable(272) %"class.std::basic_ostream"* @_ZNSolsEPFRSoS_E(%"class.std::basic_ostream"* %18, %"class.std::basic_ostream"* (%"class.std::basic_ostream"*)* @_ZSt4endlIcSt11char_traitsIcEERSt13basic_ostreamIT_T0_ES6_)
  ret i32 0
}
*** IR Dump After Shadow Stack GC Lowering ***
; Function Attrs: noinline norecurse uwtable
define dso_local i32 @main() #4 {
  %1 = alloca i32, align 4
  %2 = alloca i32, align 4
  %3 = alloca i32, align 4
  %4 = alloca i32, align 4
  store i32 0, i32* %1, align 4
  %5 = call dereferenceable(280) %"class.std::basic_istream"* @_ZNSirsERi(%"class.std::basic_istream"* @_ZSt3cin, i32* dereferenceable(4) %3)
  store i32 2, i32* %2, align 4
  store i32 1, i32* %4, align 4
  br label %6

6:                                                ; preds = %10, %0
  %7 = load i32, i32* %2, align 4
  %8 = load i32, i32* %3, align 4
  %9 = icmp sle i32 %7, %8
  br i1 %9, label %10, label %16

10:                                               ; preds = %6
  %11 = load i32, i32* %4, align 4
  %12 = load i32, i32* %2, align 4
  %13 = mul nsw i32 %11, %12
  store i32 %13, i32* %4, align 4
  %14 = load i32, i32* %2, align 4
  %15 = add nsw i32 %14, 1
  store i32 %15, i32* %2, align 4
  br label %6

16:                                               ; preds = %6
  %17 = load i32, i32* %4, align 4
  %18 = call dereferenceable(272) %"class.std::basic_ostream"* @_ZNSolsEi(%"class.std::basic_ostream"* @_ZSt4cout, i32 %17)
  %19 = call dereferenceable(272) %"class.std::basic_ostream"* @_ZNSolsEPFRSoS_E(%"class.std::basic_ostream"* %18, %"class.std::basic_ostream"* (%"class.std::basic_ostream"*)* @_ZSt4endlIcSt11char_traitsIcEERSt13basic_ostreamIT_T0_ES6_)
  ret i32 0
}
*** IR Dump Before Lower constant intrinsics ***
; Function Attrs: noinline norecurse uwtable
define dso_local i32 @main() #4 {
  %1 = alloca i32, align 4
  %2 = alloca i32, align 4
  %3 = alloca i32, align 4
  %4 = alloca i32, align 4
  store i32 0, i32* %1, align 4
  %5 = call dereferenceable(280) %"class.std::basic_istream"* @_ZNSirsERi(%"class.std::basic_istream"* @_ZSt3cin, i32* dereferenceable(4) %3)
  store i32 2, i32* %2, align 4
  store i32 1, i32* %4, align 4
  br label %6

6:                                                ; preds = %10, %0
  %7 = load i32, i32* %2, align 4
  %8 = load i32, i32* %3, align 4
  %9 = icmp sle i32 %7, %8
  br i1 %9, label %10, label %16

10:                                               ; preds = %6
  %11 = load i32, i32* %4, align 4
  %12 = load i32, i32* %2, align 4
  %13 = mul nsw i32 %11, %12
  store i32 %13, i32* %4, align 4
  %14 = load i32, i32* %2, align 4
  %15 = add nsw i32 %14, 1
  store i32 %15, i32* %2, align 4
  br label %6

16:                                               ; preds = %6
  %17 = load i32, i32* %4, align 4
  %18 = call dereferenceable(272) %"class.std::basic_ostream"* @_ZNSolsEi(%"class.std::basic_ostream"* @_ZSt4cout, i32 %17)
  %19 = call dereferenceable(272) %"class.std::basic_ostream"* @_ZNSolsEPFRSoS_E(%"class.std::basic_ostream"* %18, %"class.std::basic_ostream"* (%"class.std::basic_ostream"*)* @_ZSt4endlIcSt11char_traitsIcEERSt13basic_ostreamIT_T0_ES6_)
  ret i32 0
}
*** IR Dump After Lower constant intrinsics ***
; Function Attrs: noinline norecurse uwtable
define dso_local i32 @main() #4 {
  %1 = alloca i32, align 4
  %2 = alloca i32, align 4
  %3 = alloca i32, align 4
  %4 = alloca i32, align 4
  store i32 0, i32* %1, align 4
  %5 = call dereferenceable(280) %"class.std::basic_istream"* @_ZNSirsERi(%"class.std::basic_istream"* @_ZSt3cin, i32* dereferenceable(4) %3)
  store i32 2, i32* %2, align 4
  store i32 1, i32* %4, align 4
  br label %6

6:                                                ; preds = %10, %0
  %7 = load i32, i32* %2, align 4
  %8 = load i32, i32* %3, align 4
  %9 = icmp sle i32 %7, %8
  br i1 %9, label %10, label %16

10:                                               ; preds = %6
  %11 = load i32, i32* %4, align 4
  %12 = load i32, i32* %2, align 4
  %13 = mul nsw i32 %11, %12
  store i32 %13, i32* %4, align 4
  %14 = load i32, i32* %2, align 4
  %15 = add nsw i32 %14, 1
  store i32 %15, i32* %2, align 4
  br label %6

16:                                               ; preds = %6
  %17 = load i32, i32* %4, align 4
  %18 = call dereferenceable(272) %"class.std::basic_ostream"* @_ZNSolsEi(%"class.std::basic_ostream"* @_ZSt4cout, i32 %17)
  %19 = call dereferenceable(272) %"class.std::basic_ostream"* @_ZNSolsEPFRSoS_E(%"class.std::basic_ostream"* %18, %"class.std::basic_ostream"* (%"class.std::basic_ostream"*)* @_ZSt4endlIcSt11char_traitsIcEERSt13basic_ostreamIT_T0_ES6_)
  ret i32 0
}
*** IR Dump Before Remove unreachable blocks from the CFG ***
; Function Attrs: noinline norecurse uwtable
define dso_local i32 @main() #4 {
  %1 = alloca i32, align 4
  %2 = alloca i32, align 4
  %3 = alloca i32, align 4
  %4 = alloca i32, align 4
  store i32 0, i32* %1, align 4
  %5 = call dereferenceable(280) %"class.std::basic_istream"* @_ZNSirsERi(%"class.std::basic_istream"* @_ZSt3cin, i32* dereferenceable(4) %3)
  store i32 2, i32* %2, align 4
  store i32 1, i32* %4, align 4
  br label %6

6:                                                ; preds = %10, %0
  %7 = load i32, i32* %2, align 4
  %8 = load i32, i32* %3, align 4
  %9 = icmp sle i32 %7, %8
  br i1 %9, label %10, label %16

10:                                               ; preds = %6
  %11 = load i32, i32* %4, align 4
  %12 = load i32, i32* %2, align 4
  %13 = mul nsw i32 %11, %12
  store i32 %13, i32* %4, align 4
  %14 = load i32, i32* %2, align 4
  %15 = add nsw i32 %14, 1
  store i32 %15, i32* %2, align 4
  br label %6

16:                                               ; preds = %6
  %17 = load i32, i32* %4, align 4
  %18 = call dereferenceable(272) %"class.std::basic_ostream"* @_ZNSolsEi(%"class.std::basic_ostream"* @_ZSt4cout, i32 %17)
  %19 = call dereferenceable(272) %"class.std::basic_ostream"* @_ZNSolsEPFRSoS_E(%"class.std::basic_ostream"* %18, %"class.std::basic_ostream"* (%"class.std::basic_ostream"*)* @_ZSt4endlIcSt11char_traitsIcEERSt13basic_ostreamIT_T0_ES6_)
  ret i32 0
}
*** IR Dump After Remove unreachable blocks from the CFG ***
; Function Attrs: noinline norecurse uwtable
define dso_local i32 @main() #4 {
  %1 = alloca i32, align 4
  %2 = alloca i32, align 4
  %3 = alloca i32, align 4
  %4 = alloca i32, align 4
  store i32 0, i32* %1, align 4
  %5 = call dereferenceable(280) %"class.std::basic_istream"* @_ZNSirsERi(%"class.std::basic_istream"* @_ZSt3cin, i32* dereferenceable(4) %3)
  store i32 2, i32* %2, align 4
  store i32 1, i32* %4, align 4
  br label %6

6:                                                ; preds = %10, %0
  %7 = load i32, i32* %2, align 4
  %8 = load i32, i32* %3, align 4
  %9 = icmp sle i32 %7, %8
  br i1 %9, label %10, label %16

10:                                               ; preds = %6
  %11 = load i32, i32* %4, align 4
  %12 = load i32, i32* %2, align 4
  %13 = mul nsw i32 %11, %12
  store i32 %13, i32* %4, align 4
  %14 = load i32, i32* %2, align 4
  %15 = add nsw i32 %14, 1
  store i32 %15, i32* %2, align 4
  br label %6

16:                                               ; preds = %6
  %17 = load i32, i32* %4, align 4
  %18 = call dereferenceable(272) %"class.std::basic_ostream"* @_ZNSolsEi(%"class.std::basic_ostream"* @_ZSt4cout, i32 %17)
  %19 = call dereferenceable(272) %"class.std::basic_ostream"* @_ZNSolsEPFRSoS_E(%"class.std::basic_ostream"* %18, %"class.std::basic_ostream"* (%"class.std::basic_ostream"*)* @_ZSt4endlIcSt11char_traitsIcEERSt13basic_ostreamIT_T0_ES6_)
  ret i32 0
}
*** IR Dump Before Constant Hoisting ***
; Function Attrs: noinline norecurse uwtable
define dso_local i32 @main() #4 {
  %1 = alloca i32, align 4
  %2 = alloca i32, align 4
  %3 = alloca i32, align 4
  %4 = alloca i32, align 4
  store i32 0, i32* %1, align 4
  %5 = call dereferenceable(280) %"class.std::basic_istream"* @_ZNSirsERi(%"class.std::basic_istream"* @_ZSt3cin, i32* dereferenceable(4) %3)
  store i32 2, i32* %2, align 4
  store i32 1, i32* %4, align 4
  br label %6

6:                                                ; preds = %10, %0
  %7 = load i32, i32* %2, align 4
  %8 = load i32, i32* %3, align 4
  %9 = icmp sle i32 %7, %8
  br i1 %9, label %10, label %16

10:                                               ; preds = %6
  %11 = load i32, i32* %4, align 4
  %12 = load i32, i32* %2, align 4
  %13 = mul nsw i32 %11, %12
  store i32 %13, i32* %4, align 4
  %14 = load i32, i32* %2, align 4
  %15 = add nsw i32 %14, 1
  store i32 %15, i32* %2, align 4
  br label %6

16:                                               ; preds = %6
  %17 = load i32, i32* %4, align 4
  %18 = call dereferenceable(272) %"class.std::basic_ostream"* @_ZNSolsEi(%"class.std::basic_ostream"* @_ZSt4cout, i32 %17)
  %19 = call dereferenceable(272) %"class.std::basic_ostream"* @_ZNSolsEPFRSoS_E(%"class.std::basic_ostream"* %18, %"class.std::basic_ostream"* (%"class.std::basic_ostream"*)* @_ZSt4endlIcSt11char_traitsIcEERSt13basic_ostreamIT_T0_ES6_)
  ret i32 0
}
*** IR Dump After Constant Hoisting ***
; Function Attrs: noinline norecurse uwtable
define dso_local i32 @main() #4 {
  %1 = alloca i32, align 4
  %2 = alloca i32, align 4
  %3 = alloca i32, align 4
  %4 = alloca i32, align 4
  store i32 0, i32* %1, align 4
  %5 = call dereferenceable(280) %"class.std::basic_istream"* @_ZNSirsERi(%"class.std::basic_istream"* @_ZSt3cin, i32* dereferenceable(4) %3)
  store i32 2, i32* %2, align 4
  store i32 1, i32* %4, align 4
  br label %6

6:                                                ; preds = %10, %0
  %7 = load i32, i32* %2, align 4
  %8 = load i32, i32* %3, align 4
  %9 = icmp sle i32 %7, %8
  br i1 %9, label %10, label %16

10:                                               ; preds = %6
  %11 = load i32, i32* %4, align 4
  %12 = load i32, i32* %2, align 4
  %13 = mul nsw i32 %11, %12
  store i32 %13, i32* %4, align 4
  %14 = load i32, i32* %2, align 4
  %15 = add nsw i32 %14, 1
  store i32 %15, i32* %2, align 4
  br label %6

16:                                               ; preds = %6
  %17 = load i32, i32* %4, align 4
  %18 = call dereferenceable(272) %"class.std::basic_ostream"* @_ZNSolsEi(%"class.std::basic_ostream"* @_ZSt4cout, i32 %17)
  %19 = call dereferenceable(272) %"class.std::basic_ostream"* @_ZNSolsEPFRSoS_E(%"class.std::basic_ostream"* %18, %"class.std::basic_ostream"* (%"class.std::basic_ostream"*)* @_ZSt4endlIcSt11char_traitsIcEERSt13basic_ostreamIT_T0_ES6_)
  ret i32 0
}
*** IR Dump Before Partially inline calls to library functions ***
; Function Attrs: noinline norecurse uwtable
define dso_local i32 @main() #4 {
  %1 = alloca i32, align 4
  %2 = alloca i32, align 4
  %3 = alloca i32, align 4
  %4 = alloca i32, align 4
  store i32 0, i32* %1, align 4
  %5 = call dereferenceable(280) %"class.std::basic_istream"* @_ZNSirsERi(%"class.std::basic_istream"* @_ZSt3cin, i32* dereferenceable(4) %3)
  store i32 2, i32* %2, align 4
  store i32 1, i32* %4, align 4
  br label %6

6:                                                ; preds = %10, %0
  %7 = load i32, i32* %2, align 4
  %8 = load i32, i32* %3, align 4
  %9 = icmp sle i32 %7, %8
  br i1 %9, label %10, label %16

10:                                               ; preds = %6
  %11 = load i32, i32* %4, align 4
  %12 = load i32, i32* %2, align 4
  %13 = mul nsw i32 %11, %12
  store i32 %13, i32* %4, align 4
  %14 = load i32, i32* %2, align 4
  %15 = add nsw i32 %14, 1
  store i32 %15, i32* %2, align 4
  br label %6

16:                                               ; preds = %6
  %17 = load i32, i32* %4, align 4
  %18 = call dereferenceable(272) %"class.std::basic_ostream"* @_ZNSolsEi(%"class.std::basic_ostream"* @_ZSt4cout, i32 %17)
  %19 = call dereferenceable(272) %"class.std::basic_ostream"* @_ZNSolsEPFRSoS_E(%"class.std::basic_ostream"* %18, %"class.std::basic_ostream"* (%"class.std::basic_ostream"*)* @_ZSt4endlIcSt11char_traitsIcEERSt13basic_ostreamIT_T0_ES6_)
  ret i32 0
}
*** IR Dump After Partially inline calls to library functions ***
; Function Attrs: noinline norecurse uwtable
define dso_local i32 @main() #4 {
  %1 = alloca i32, align 4
  %2 = alloca i32, align 4
  %3 = alloca i32, align 4
  %4 = alloca i32, align 4
  store i32 0, i32* %1, align 4
  %5 = call dereferenceable(280) %"class.std::basic_istream"* @_ZNSirsERi(%"class.std::basic_istream"* @_ZSt3cin, i32* dereferenceable(4) %3)
  store i32 2, i32* %2, align 4
  store i32 1, i32* %4, align 4
  br label %6

6:                                                ; preds = %10, %0
  %7 = load i32, i32* %2, align 4
  %8 = load i32, i32* %3, align 4
  %9 = icmp sle i32 %7, %8
  br i1 %9, label %10, label %16

10:                                               ; preds = %6
  %11 = load i32, i32* %4, align 4
  %12 = load i32, i32* %2, align 4
  %13 = mul nsw i32 %11, %12
  store i32 %13, i32* %4, align 4
  %14 = load i32, i32* %2, align 4
  %15 = add nsw i32 %14, 1
  store i32 %15, i32* %2, align 4
  br label %6

16:                                               ; preds = %6
  %17 = load i32, i32* %4, align 4
  %18 = call dereferenceable(272) %"class.std::basic_ostream"* @_ZNSolsEi(%"class.std::basic_ostream"* @_ZSt4cout, i32 %17)
  %19 = call dereferenceable(272) %"class.std::basic_ostream"* @_ZNSolsEPFRSoS_E(%"class.std::basic_ostream"* %18, %"class.std::basic_ostream"* (%"class.std::basic_ostream"*)* @_ZSt4endlIcSt11char_traitsIcEERSt13basic_ostreamIT_T0_ES6_)
  ret i32 0
}
*** IR Dump Before Instrument function entry/exit with calls to e.g. mcount() (post inlining) ***
; Function Attrs: noinline norecurse uwtable
define dso_local i32 @main() #4 {
  %1 = alloca i32, align 4
  %2 = alloca i32, align 4
  %3 = alloca i32, align 4
  %4 = alloca i32, align 4
  store i32 0, i32* %1, align 4
  %5 = call dereferenceable(280) %"class.std::basic_istream"* @_ZNSirsERi(%"class.std::basic_istream"* @_ZSt3cin, i32* dereferenceable(4) %3)
  store i32 2, i32* %2, align 4
  store i32 1, i32* %4, align 4
  br label %6

6:                                                ; preds = %10, %0
  %7 = load i32, i32* %2, align 4
  %8 = load i32, i32* %3, align 4
  %9 = icmp sle i32 %7, %8
  br i1 %9, label %10, label %16

10:                                               ; preds = %6
  %11 = load i32, i32* %4, align 4
  %12 = load i32, i32* %2, align 4
  %13 = mul nsw i32 %11, %12
  store i32 %13, i32* %4, align 4
  %14 = load i32, i32* %2, align 4
  %15 = add nsw i32 %14, 1
  store i32 %15, i32* %2, align 4
  br label %6

16:                                               ; preds = %6
  %17 = load i32, i32* %4, align 4
  %18 = call dereferenceable(272) %"class.std::basic_ostream"* @_ZNSolsEi(%"class.std::basic_ostream"* @_ZSt4cout, i32 %17)
  %19 = call dereferenceable(272) %"class.std::basic_ostream"* @_ZNSolsEPFRSoS_E(%"class.std::basic_ostream"* %18, %"class.std::basic_ostream"* (%"class.std::basic_ostream"*)* @_ZSt4endlIcSt11char_traitsIcEERSt13basic_ostreamIT_T0_ES6_)
  ret i32 0
}
*** IR Dump After Instrument function entry/exit with calls to e.g. mcount() (post inlining) ***
; Function Attrs: noinline norecurse uwtable
define dso_local i32 @main() #4 {
  %1 = alloca i32, align 4
  %2 = alloca i32, align 4
  %3 = alloca i32, align 4
  %4 = alloca i32, align 4
  store i32 0, i32* %1, align 4
  %5 = call dereferenceable(280) %"class.std::basic_istream"* @_ZNSirsERi(%"class.std::basic_istream"* @_ZSt3cin, i32* dereferenceable(4) %3)
  store i32 2, i32* %2, align 4
  store i32 1, i32* %4, align 4
  br label %6

6:                                                ; preds = %10, %0
  %7 = load i32, i32* %2, align 4
  %8 = load i32, i32* %3, align 4
  %9 = icmp sle i32 %7, %8
  br i1 %9, label %10, label %16

10:                                               ; preds = %6
  %11 = load i32, i32* %4, align 4
  %12 = load i32, i32* %2, align 4
  %13 = mul nsw i32 %11, %12
  store i32 %13, i32* %4, align 4
  %14 = load i32, i32* %2, align 4
  %15 = add nsw i32 %14, 1
  store i32 %15, i32* %2, align 4
  br label %6

16:                                               ; preds = %6
  %17 = load i32, i32* %4, align 4
  %18 = call dereferenceable(272) %"class.std::basic_ostream"* @_ZNSolsEi(%"class.std::basic_ostream"* @_ZSt4cout, i32 %17)
  %19 = call dereferenceable(272) %"class.std::basic_ostream"* @_ZNSolsEPFRSoS_E(%"class.std::basic_ostream"* %18, %"class.std::basic_ostream"* (%"class.std::basic_ostream"*)* @_ZSt4endlIcSt11char_traitsIcEERSt13basic_ostreamIT_T0_ES6_)
  ret i32 0
}
*** IR Dump Before Scalarize Masked Memory Intrinsics ***
; Function Attrs: noinline norecurse uwtable
define dso_local i32 @main() #4 {
  %1 = alloca i32, align 4
  %2 = alloca i32, align 4
  %3 = alloca i32, align 4
  %4 = alloca i32, align 4
  store i32 0, i32* %1, align 4
  %5 = call dereferenceable(280) %"class.std::basic_istream"* @_ZNSirsERi(%"class.std::basic_istream"* @_ZSt3cin, i32* dereferenceable(4) %3)
  store i32 2, i32* %2, align 4
  store i32 1, i32* %4, align 4
  br label %6

6:                                                ; preds = %10, %0
  %7 = load i32, i32* %2, align 4
  %8 = load i32, i32* %3, align 4
  %9 = icmp sle i32 %7, %8
  br i1 %9, label %10, label %16

10:                                               ; preds = %6
  %11 = load i32, i32* %4, align 4
  %12 = load i32, i32* %2, align 4
  %13 = mul nsw i32 %11, %12
  store i32 %13, i32* %4, align 4
  %14 = load i32, i32* %2, align 4
  %15 = add nsw i32 %14, 1
  store i32 %15, i32* %2, align 4
  br label %6

16:                                               ; preds = %6
  %17 = load i32, i32* %4, align 4
  %18 = call dereferenceable(272) %"class.std::basic_ostream"* @_ZNSolsEi(%"class.std::basic_ostream"* @_ZSt4cout, i32 %17)
  %19 = call dereferenceable(272) %"class.std::basic_ostream"* @_ZNSolsEPFRSoS_E(%"class.std::basic_ostream"* %18, %"class.std::basic_ostream"* (%"class.std::basic_ostream"*)* @_ZSt4endlIcSt11char_traitsIcEERSt13basic_ostreamIT_T0_ES6_)
  ret i32 0
}
*** IR Dump After Scalarize Masked Memory Intrinsics ***
; Function Attrs: noinline norecurse uwtable
define dso_local i32 @main() #4 {
  %1 = alloca i32, align 4
  %2 = alloca i32, align 4
  %3 = alloca i32, align 4
  %4 = alloca i32, align 4
  store i32 0, i32* %1, align 4
  %5 = call dereferenceable(280) %"class.std::basic_istream"* @_ZNSirsERi(%"class.std::basic_istream"* @_ZSt3cin, i32* dereferenceable(4) %3)
  store i32 2, i32* %2, align 4
  store i32 1, i32* %4, align 4
  br label %6

6:                                                ; preds = %10, %0
  %7 = load i32, i32* %2, align 4
  %8 = load i32, i32* %3, align 4
  %9 = icmp sle i32 %7, %8
  br i1 %9, label %10, label %16

10:                                               ; preds = %6
  %11 = load i32, i32* %4, align 4
  %12 = load i32, i32* %2, align 4
  %13 = mul nsw i32 %11, %12
  store i32 %13, i32* %4, align 4
  %14 = load i32, i32* %2, align 4
  %15 = add nsw i32 %14, 1
  store i32 %15, i32* %2, align 4
  br label %6

16:                                               ; preds = %6
  %17 = load i32, i32* %4, align 4
  %18 = call dereferenceable(272) %"class.std::basic_ostream"* @_ZNSolsEi(%"class.std::basic_ostream"* @_ZSt4cout, i32 %17)
  %19 = call dereferenceable(272) %"class.std::basic_ostream"* @_ZNSolsEPFRSoS_E(%"class.std::basic_ostream"* %18, %"class.std::basic_ostream"* (%"class.std::basic_ostream"*)* @_ZSt4endlIcSt11char_traitsIcEERSt13basic_ostreamIT_T0_ES6_)
  ret i32 0
}
*** IR Dump Before Expand reduction intrinsics ***
; Function Attrs: noinline norecurse uwtable
define dso_local i32 @main() #4 {
  %1 = alloca i32, align 4
  %2 = alloca i32, align 4
  %3 = alloca i32, align 4
  %4 = alloca i32, align 4
  store i32 0, i32* %1, align 4
  %5 = call dereferenceable(280) %"class.std::basic_istream"* @_ZNSirsERi(%"class.std::basic_istream"* @_ZSt3cin, i32* dereferenceable(4) %3)
  store i32 2, i32* %2, align 4
  store i32 1, i32* %4, align 4
  br label %6

6:                                                ; preds = %10, %0
  %7 = load i32, i32* %2, align 4
  %8 = load i32, i32* %3, align 4
  %9 = icmp sle i32 %7, %8
  br i1 %9, label %10, label %16

10:                                               ; preds = %6
  %11 = load i32, i32* %4, align 4
  %12 = load i32, i32* %2, align 4
  %13 = mul nsw i32 %11, %12
  store i32 %13, i32* %4, align 4
  %14 = load i32, i32* %2, align 4
  %15 = add nsw i32 %14, 1
  store i32 %15, i32* %2, align 4
  br label %6

16:                                               ; preds = %6
  %17 = load i32, i32* %4, align 4
  %18 = call dereferenceable(272) %"class.std::basic_ostream"* @_ZNSolsEi(%"class.std::basic_ostream"* @_ZSt4cout, i32 %17)
  %19 = call dereferenceable(272) %"class.std::basic_ostream"* @_ZNSolsEPFRSoS_E(%"class.std::basic_ostream"* %18, %"class.std::basic_ostream"* (%"class.std::basic_ostream"*)* @_ZSt4endlIcSt11char_traitsIcEERSt13basic_ostreamIT_T0_ES6_)
  ret i32 0
}
*** IR Dump After Expand reduction intrinsics ***
; Function Attrs: noinline norecurse uwtable
define dso_local i32 @main() #4 {
  %1 = alloca i32, align 4
  %2 = alloca i32, align 4
  %3 = alloca i32, align 4
  %4 = alloca i32, align 4
  store i32 0, i32* %1, align 4
  %5 = call dereferenceable(280) %"class.std::basic_istream"* @_ZNSirsERi(%"class.std::basic_istream"* @_ZSt3cin, i32* dereferenceable(4) %3)
  store i32 2, i32* %2, align 4
  store i32 1, i32* %4, align 4
  br label %6

6:                                                ; preds = %10, %0
  %7 = load i32, i32* %2, align 4
  %8 = load i32, i32* %3, align 4
  %9 = icmp sle i32 %7, %8
  br i1 %9, label %10, label %16

10:                                               ; preds = %6
  %11 = load i32, i32* %4, align 4
  %12 = load i32, i32* %2, align 4
  %13 = mul nsw i32 %11, %12
  store i32 %13, i32* %4, align 4
  %14 = load i32, i32* %2, align 4
  %15 = add nsw i32 %14, 1
  store i32 %15, i32* %2, align 4
  br label %6

16:                                               ; preds = %6
  %17 = load i32, i32* %4, align 4
  %18 = call dereferenceable(272) %"class.std::basic_ostream"* @_ZNSolsEi(%"class.std::basic_ostream"* @_ZSt4cout, i32 %17)
  %19 = call dereferenceable(272) %"class.std::basic_ostream"* @_ZNSolsEPFRSoS_E(%"class.std::basic_ostream"* %18, %"class.std::basic_ostream"* (%"class.std::basic_ostream"*)* @_ZSt4endlIcSt11char_traitsIcEERSt13basic_ostreamIT_T0_ES6_)
  ret i32 0
}
*** IR Dump Before Interleaved Access Pass ***
; Function Attrs: noinline norecurse uwtable
define dso_local i32 @main() #4 {
  %1 = alloca i32, align 4
  %2 = alloca i32, align 4
  %3 = alloca i32, align 4
  %4 = alloca i32, align 4
  store i32 0, i32* %1, align 4
  %5 = call dereferenceable(280) %"class.std::basic_istream"* @_ZNSirsERi(%"class.std::basic_istream"* @_ZSt3cin, i32* dereferenceable(4) %3)
  store i32 2, i32* %2, align 4
  store i32 1, i32* %4, align 4
  br label %6

6:                                                ; preds = %10, %0
  %7 = load i32, i32* %2, align 4
  %8 = load i32, i32* %3, align 4
  %9 = icmp sle i32 %7, %8
  br i1 %9, label %10, label %16

10:                                               ; preds = %6
  %11 = load i32, i32* %4, align 4
  %12 = load i32, i32* %2, align 4
  %13 = mul nsw i32 %11, %12
  store i32 %13, i32* %4, align 4
  %14 = load i32, i32* %2, align 4
  %15 = add nsw i32 %14, 1
  store i32 %15, i32* %2, align 4
  br label %6

16:                                               ; preds = %6
  %17 = load i32, i32* %4, align 4
  %18 = call dereferenceable(272) %"class.std::basic_ostream"* @_ZNSolsEi(%"class.std::basic_ostream"* @_ZSt4cout, i32 %17)
  %19 = call dereferenceable(272) %"class.std::basic_ostream"* @_ZNSolsEPFRSoS_E(%"class.std::basic_ostream"* %18, %"class.std::basic_ostream"* (%"class.std::basic_ostream"*)* @_ZSt4endlIcSt11char_traitsIcEERSt13basic_ostreamIT_T0_ES6_)
  ret i32 0
}
*** IR Dump After Interleaved Access Pass ***
; Function Attrs: noinline norecurse uwtable
define dso_local i32 @main() #4 {
  %1 = alloca i32, align 4
  %2 = alloca i32, align 4
  %3 = alloca i32, align 4
  %4 = alloca i32, align 4
  store i32 0, i32* %1, align 4
  %5 = call dereferenceable(280) %"class.std::basic_istream"* @_ZNSirsERi(%"class.std::basic_istream"* @_ZSt3cin, i32* dereferenceable(4) %3)
  store i32 2, i32* %2, align 4
  store i32 1, i32* %4, align 4
  br label %6

6:                                                ; preds = %10, %0
  %7 = load i32, i32* %2, align 4
  %8 = load i32, i32* %3, align 4
  %9 = icmp sle i32 %7, %8
  br i1 %9, label %10, label %16

10:                                               ; preds = %6
  %11 = load i32, i32* %4, align 4
  %12 = load i32, i32* %2, align 4
  %13 = mul nsw i32 %11, %12
  store i32 %13, i32* %4, align 4
  %14 = load i32, i32* %2, align 4
  %15 = add nsw i32 %14, 1
  store i32 %15, i32* %2, align 4
  br label %6

16:                                               ; preds = %6
  %17 = load i32, i32* %4, align 4
  %18 = call dereferenceable(272) %"class.std::basic_ostream"* @_ZNSolsEi(%"class.std::basic_ostream"* @_ZSt4cout, i32 %17)
  %19 = call dereferenceable(272) %"class.std::basic_ostream"* @_ZNSolsEPFRSoS_E(%"class.std::basic_ostream"* %18, %"class.std::basic_ostream"* (%"class.std::basic_ostream"*)* @_ZSt4endlIcSt11char_traitsIcEERSt13basic_ostreamIT_T0_ES6_)
  ret i32 0
}
*** IR Dump Before Expand indirectbr instructions ***
; Function Attrs: noinline norecurse uwtable
define dso_local i32 @main() #4 {
  %1 = alloca i32, align 4
  %2 = alloca i32, align 4
  %3 = alloca i32, align 4
  %4 = alloca i32, align 4
  store i32 0, i32* %1, align 4
  %5 = call dereferenceable(280) %"class.std::basic_istream"* @_ZNSirsERi(%"class.std::basic_istream"* @_ZSt3cin, i32* dereferenceable(4) %3)
  store i32 2, i32* %2, align 4
  store i32 1, i32* %4, align 4
  br label %6

6:                                                ; preds = %10, %0
  %7 = load i32, i32* %2, align 4
  %8 = load i32, i32* %3, align 4
  %9 = icmp sle i32 %7, %8
  br i1 %9, label %10, label %16

10:                                               ; preds = %6
  %11 = load i32, i32* %4, align 4
  %12 = load i32, i32* %2, align 4
  %13 = mul nsw i32 %11, %12
  store i32 %13, i32* %4, align 4
  %14 = load i32, i32* %2, align 4
  %15 = add nsw i32 %14, 1
  store i32 %15, i32* %2, align 4
  br label %6

16:                                               ; preds = %6
  %17 = load i32, i32* %4, align 4
  %18 = call dereferenceable(272) %"class.std::basic_ostream"* @_ZNSolsEi(%"class.std::basic_ostream"* @_ZSt4cout, i32 %17)
  %19 = call dereferenceable(272) %"class.std::basic_ostream"* @_ZNSolsEPFRSoS_E(%"class.std::basic_ostream"* %18, %"class.std::basic_ostream"* (%"class.std::basic_ostream"*)* @_ZSt4endlIcSt11char_traitsIcEERSt13basic_ostreamIT_T0_ES6_)
  ret i32 0
}
*** IR Dump After Expand indirectbr instructions ***
; Function Attrs: noinline norecurse uwtable
define dso_local i32 @main() #4 {
  %1 = alloca i32, align 4
  %2 = alloca i32, align 4
  %3 = alloca i32, align 4
  %4 = alloca i32, align 4
  store i32 0, i32* %1, align 4
  %5 = call dereferenceable(280) %"class.std::basic_istream"* @_ZNSirsERi(%"class.std::basic_istream"* @_ZSt3cin, i32* dereferenceable(4) %3)
  store i32 2, i32* %2, align 4
  store i32 1, i32* %4, align 4
  br label %6

6:                                                ; preds = %10, %0
  %7 = load i32, i32* %2, align 4
  %8 = load i32, i32* %3, align 4
  %9 = icmp sle i32 %7, %8
  br i1 %9, label %10, label %16

10:                                               ; preds = %6
  %11 = load i32, i32* %4, align 4
  %12 = load i32, i32* %2, align 4
  %13 = mul nsw i32 %11, %12
  store i32 %13, i32* %4, align 4
  %14 = load i32, i32* %2, align 4
  %15 = add nsw i32 %14, 1
  store i32 %15, i32* %2, align 4
  br label %6

16:                                               ; preds = %6
  %17 = load i32, i32* %4, align 4
  %18 = call dereferenceable(272) %"class.std::basic_ostream"* @_ZNSolsEi(%"class.std::basic_ostream"* @_ZSt4cout, i32 %17)
  %19 = call dereferenceable(272) %"class.std::basic_ostream"* @_ZNSolsEPFRSoS_E(%"class.std::basic_ostream"* %18, %"class.std::basic_ostream"* (%"class.std::basic_ostream"*)* @_ZSt4endlIcSt11char_traitsIcEERSt13basic_ostreamIT_T0_ES6_)
  ret i32 0
}
*** IR Dump Before CodeGen Prepare ***
; Function Attrs: noinline norecurse uwtable
define dso_local i32 @main() #4 {
  %1 = alloca i32, align 4
  %2 = alloca i32, align 4
  %3 = alloca i32, align 4
  %4 = alloca i32, align 4
  store i32 0, i32* %1, align 4
  %5 = call dereferenceable(280) %"class.std::basic_istream"* @_ZNSirsERi(%"class.std::basic_istream"* @_ZSt3cin, i32* dereferenceable(4) %3)
  store i32 2, i32* %2, align 4
  store i32 1, i32* %4, align 4
  br label %6

6:                                                ; preds = %10, %0
  %7 = load i32, i32* %2, align 4
  %8 = load i32, i32* %3, align 4
  %9 = icmp sle i32 %7, %8
  br i1 %9, label %10, label %16

10:                                               ; preds = %6
  %11 = load i32, i32* %4, align 4
  %12 = load i32, i32* %2, align 4
  %13 = mul nsw i32 %11, %12
  store i32 %13, i32* %4, align 4
  %14 = load i32, i32* %2, align 4
  %15 = add nsw i32 %14, 1
  store i32 %15, i32* %2, align 4
  br label %6

16:                                               ; preds = %6
  %17 = load i32, i32* %4, align 4
  %18 = call dereferenceable(272) %"class.std::basic_ostream"* @_ZNSolsEi(%"class.std::basic_ostream"* @_ZSt4cout, i32 %17)
  %19 = call dereferenceable(272) %"class.std::basic_ostream"* @_ZNSolsEPFRSoS_E(%"class.std::basic_ostream"* %18, %"class.std::basic_ostream"* (%"class.std::basic_ostream"*)* @_ZSt4endlIcSt11char_traitsIcEERSt13basic_ostreamIT_T0_ES6_)
  ret i32 0
}
*** IR Dump After CodeGen Prepare ***
; Function Attrs: noinline norecurse uwtable
define dso_local i32 @main() #4 {
  %1 = alloca i32, align 4
  %2 = alloca i32, align 4
  %3 = alloca i32, align 4
  %4 = alloca i32, align 4
  store i32 0, i32* %1, align 4
  %5 = call dereferenceable(280) %"class.std::basic_istream"* @_ZNSirsERi(%"class.std::basic_istream"* @_ZSt3cin, i32* dereferenceable(4) %3)
  store i32 2, i32* %2, align 4
  store i32 1, i32* %4, align 4
  br label %6

6:                                                ; preds = %10, %0
  %7 = load i32, i32* %2, align 4
  %8 = load i32, i32* %3, align 4
  %9 = icmp sle i32 %7, %8
  br i1 %9, label %10, label %16

10:                                               ; preds = %6
  %11 = load i32, i32* %4, align 4
  %12 = load i32, i32* %2, align 4
  %13 = mul nsw i32 %11, %12
  store i32 %13, i32* %4, align 4
  %14 = load i32, i32* %2, align 4
  %15 = add nsw i32 %14, 1
  store i32 %15, i32* %2, align 4
  br label %6

16:                                               ; preds = %6
  %17 = load i32, i32* %4, align 4
  %18 = call dereferenceable(272) %"class.std::basic_ostream"* @_ZNSolsEi(%"class.std::basic_ostream"* @_ZSt4cout, i32 %17)
  %19 = call dereferenceable(272) %"class.std::basic_ostream"* @_ZNSolsEPFRSoS_E(%"class.std::basic_ostream"* %18, %"class.std::basic_ostream"* (%"class.std::basic_ostream"*)* @_ZSt4endlIcSt11char_traitsIcEERSt13basic_ostreamIT_T0_ES6_)
  ret i32 0
}
*** IR Dump Before Expand Atomic instructions ***
; Function Attrs: noinline uwtable
define internal void @_GLOBAL__sub_I_main.cpp() #0 section ".text.startup" {
  call void @__cxx_global_var_init()
  ret void
}
*** IR Dump After Expand Atomic instructions ***
; Function Attrs: noinline uwtable
define internal void @_GLOBAL__sub_I_main.cpp() #0 section ".text.startup" {
  call void @__cxx_global_var_init()
  ret void
}
*** IR Dump Before Module Verifier ***
; Function Attrs: noinline uwtable
define internal void @_GLOBAL__sub_I_main.cpp() #0 section ".text.startup" {
  call void @__cxx_global_var_init()
  ret void
}
*** IR Dump After Module Verifier ***
; Function Attrs: noinline uwtable
define internal void @_GLOBAL__sub_I_main.cpp() #0 section ".text.startup" {
  call void @__cxx_global_var_init()
  ret void
}
*** IR Dump Before Canonicalize natural loops ***
; Function Attrs: noinline uwtable
define internal void @_GLOBAL__sub_I_main.cpp() #0 section ".text.startup" {
  call void @__cxx_global_var_init()
  ret void
}
*** IR Dump After Canonicalize natural loops ***
; Function Attrs: noinline uwtable
define internal void @_GLOBAL__sub_I_main.cpp() #0 section ".text.startup" {
  call void @__cxx_global_var_init()
  ret void
}
*** IR Dump Before Merge contiguous icmps into a memcmp ***
; Function Attrs: noinline uwtable
define internal void @_GLOBAL__sub_I_main.cpp() #0 section ".text.startup" {
  call void @__cxx_global_var_init()
  ret void
}
*** IR Dump After Merge contiguous icmps into a memcmp ***
; Function Attrs: noinline uwtable
define internal void @_GLOBAL__sub_I_main.cpp() #0 section ".text.startup" {
  call void @__cxx_global_var_init()
  ret void
}
*** IR Dump Before Expand memcmp() to load/stores ***
; Function Attrs: noinline uwtable
define internal void @_GLOBAL__sub_I_main.cpp() #0 section ".text.startup" {
  call void @__cxx_global_var_init()
  ret void
}
*** IR Dump After Expand memcmp() to load/stores ***
; Function Attrs: noinline uwtable
define internal void @_GLOBAL__sub_I_main.cpp() #0 section ".text.startup" {
  call void @__cxx_global_var_init()
  ret void
}
*** IR Dump Before Lower Garbage Collection Instructions ***
; Function Attrs: noinline uwtable
define internal void @_GLOBAL__sub_I_main.cpp() #0 section ".text.startup" {
  call void @__cxx_global_var_init()
  ret void
}
*** IR Dump After Lower Garbage Collection Instructions ***
; Function Attrs: noinline uwtable
define internal void @_GLOBAL__sub_I_main.cpp() #0 section ".text.startup" {
  call void @__cxx_global_var_init()
  ret void
}
*** IR Dump Before Shadow Stack GC Lowering ***
; Function Attrs: noinline uwtable
define internal void @_GLOBAL__sub_I_main.cpp() #0 section ".text.startup" {
  call void @__cxx_global_var_init()
  ret void
}
*** IR Dump After Shadow Stack GC Lowering ***
; Function Attrs: noinline uwtable
define internal void @_GLOBAL__sub_I_main.cpp() #0 section ".text.startup" {
  call void @__cxx_global_var_init()
  ret void
}
*** IR Dump Before Lower constant intrinsics ***
; Function Attrs: noinline uwtable
define internal void @_GLOBAL__sub_I_main.cpp() #0 section ".text.startup" {
  call void @__cxx_global_var_init()
  ret void
}
*** IR Dump After Lower constant intrinsics ***
; Function Attrs: noinline uwtable
define internal void @_GLOBAL__sub_I_main.cpp() #0 section ".text.startup" {
  call void @__cxx_global_var_init()
  ret void
}
*** IR Dump Before Remove unreachable blocks from the CFG ***
; Function Attrs: noinline uwtable
define internal void @_GLOBAL__sub_I_main.cpp() #0 section ".text.startup" {
  call void @__cxx_global_var_init()
  ret void
}
*** IR Dump After Remove unreachable blocks from the CFG ***
; Function Attrs: noinline uwtable
define internal void @_GLOBAL__sub_I_main.cpp() #0 section ".text.startup" {
  call void @__cxx_global_var_init()
  ret void
}
*** IR Dump Before Constant Hoisting ***
; Function Attrs: noinline uwtable
define internal void @_GLOBAL__sub_I_main.cpp() #0 section ".text.startup" {
  call void @__cxx_global_var_init()
  ret void
}
*** IR Dump After Constant Hoisting ***
; Function Attrs: noinline uwtable
define internal void @_GLOBAL__sub_I_main.cpp() #0 section ".text.startup" {
  call void @__cxx_global_var_init()
  ret void
}
*** IR Dump Before Partially inline calls to library functions ***
; Function Attrs: noinline uwtable
define internal void @_GLOBAL__sub_I_main.cpp() #0 section ".text.startup" {
  call void @__cxx_global_var_init()
  ret void
}
*** IR Dump After Partially inline calls to library functions ***
; Function Attrs: noinline uwtable
define internal void @_GLOBAL__sub_I_main.cpp() #0 section ".text.startup" {
  call void @__cxx_global_var_init()
  ret void
}
*** IR Dump Before Instrument function entry/exit with calls to e.g. mcount() (post inlining) ***
; Function Attrs: noinline uwtable
define internal void @_GLOBAL__sub_I_main.cpp() #0 section ".text.startup" {
  call void @__cxx_global_var_init()
  ret void
}
*** IR Dump After Instrument function entry/exit with calls to e.g. mcount() (post inlining) ***
; Function Attrs: noinline uwtable
define internal void @_GLOBAL__sub_I_main.cpp() #0 section ".text.startup" {
  call void @__cxx_global_var_init()
  ret void
}
*** IR Dump Before Scalarize Masked Memory Intrinsics ***
; Function Attrs: noinline uwtable
define internal void @_GLOBAL__sub_I_main.cpp() #0 section ".text.startup" {
  call void @__cxx_global_var_init()
  ret void
}
*** IR Dump After Scalarize Masked Memory Intrinsics ***
; Function Attrs: noinline uwtable
define internal void @_GLOBAL__sub_I_main.cpp() #0 section ".text.startup" {
  call void @__cxx_global_var_init()
  ret void
}
*** IR Dump Before Expand reduction intrinsics ***
; Function Attrs: noinline uwtable
define internal void @_GLOBAL__sub_I_main.cpp() #0 section ".text.startup" {
  call void @__cxx_global_var_init()
  ret void
}
*** IR Dump After Expand reduction intrinsics ***
; Function Attrs: noinline uwtable
define internal void @_GLOBAL__sub_I_main.cpp() #0 section ".text.startup" {
  call void @__cxx_global_var_init()
  ret void
}
*** IR Dump Before Interleaved Access Pass ***
; Function Attrs: noinline uwtable
define internal void @_GLOBAL__sub_I_main.cpp() #0 section ".text.startup" {
  call void @__cxx_global_var_init()
  ret void
}
*** IR Dump After Interleaved Access Pass ***
; Function Attrs: noinline uwtable
define internal void @_GLOBAL__sub_I_main.cpp() #0 section ".text.startup" {
  call void @__cxx_global_var_init()
  ret void
}
*** IR Dump Before Expand indirectbr instructions ***
; Function Attrs: noinline uwtable
define internal void @_GLOBAL__sub_I_main.cpp() #0 section ".text.startup" {
  call void @__cxx_global_var_init()
  ret void
}
*** IR Dump After Expand indirectbr instructions ***
; Function Attrs: noinline uwtable
define internal void @_GLOBAL__sub_I_main.cpp() #0 section ".text.startup" {
  call void @__cxx_global_var_init()
  ret void
}
*** IR Dump Before CodeGen Prepare ***
; Function Attrs: noinline uwtable
define internal void @_GLOBAL__sub_I_main.cpp() #0 section ".text.startup" {
  call void @__cxx_global_var_init()
  ret void
}
*** IR Dump After CodeGen Prepare ***
; Function Attrs: noinline uwtable
define internal void @_GLOBAL__sub_I_main.cpp() #0 section ".text.startup" {
  call void @__cxx_global_var_init()
  ret void
}
*** IR Dump Before Rewrite Symbols ***
; ModuleID = 'main.ll'
source_filename = "main.cpp"
target datalayout = "e-m:e-p270:32:32-p271:32:32-p272:64:64-i64:64-f80:128-n8:16:32:64-S128"
target triple = "x86_64-pc-linux-gnu"

%"class.std::ios_base::Init" = type { i8 }
%"class.std::basic_istream" = type { i32 (...)**, i64, %"class.std::basic_ios" }
%"class.std::basic_ios" = type { %"class.std::ios_base", %"class.std::basic_ostream"*, i8, i8, %"class.std::basic_streambuf"*, %"class.std::ctype"*, %"class.std::num_put"*, %"class.std::num_get"* }
%"class.std::ios_base" = type { i32 (...)**, i64, i64, i32, i32, i32, %"struct.std::ios_base::_Callback_list"*, %"struct.std::ios_base::_Words", [8 x %"struct.std::ios_base::_Words"], i32, %"struct.std::ios_base::_Words"*, %"class.std::locale" }
%"struct.std::ios_base::_Callback_list" = type { %"struct.std::ios_base::_Callback_list"*, void (i32, %"class.std::ios_base"*, i32)*, i32, i32 }
%"struct.std::ios_base::_Words" = type { i8*, i64 }
%"class.std::locale" = type { %"class.std::locale::_Impl"* }
%"class.std::locale::_Impl" = type { i32, %"class.std::locale::facet"**, i64, %"class.std::locale::facet"**, i8** }
%"class.std::locale::facet" = type <{ i32 (...)**, i32, [4 x i8] }>
%"class.std::basic_ostream" = type { i32 (...)**, %"class.std::basic_ios" }
%"class.std::basic_streambuf" = type { i32 (...)**, i8*, i8*, i8*, i8*, i8*, i8*, %"class.std::locale" }
%"class.std::ctype" = type <{ %"class.std::locale::facet.base", [4 x i8], %struct.__locale_struct*, i8, [7 x i8], i32*, i32*, i16*, i8, [256 x i8], [256 x i8], i8, [6 x i8] }>
%"class.std::locale::facet.base" = type <{ i32 (...)**, i32 }>
%struct.__locale_struct = type { [13 x %struct.__locale_data*], i16*, i32*, i32*, [13 x i8*] }
%struct.__locale_data = type opaque
%"class.std::num_put" = type { %"class.std::locale::facet.base", [4 x i8] }
%"class.std::num_get" = type { %"class.std::locale::facet.base", [4 x i8] }

@_ZStL8__ioinit = internal global %"class.std::ios_base::Init" zeroinitializer, align 1
@__dso_handle = external hidden global i8
@_ZSt3cin = external dso_local global %"class.std::basic_istream", align 8
@_ZSt4cout = external dso_local global %"class.std::basic_ostream", align 8
@llvm.global_ctors = appending global [1 x { i32, void ()*, i8* }] [{ i32, void ()*, i8* } { i32 65535, void ()* @_GLOBAL__sub_I_main.cpp, i8* null }]

; Function Attrs: noinline uwtable
define internal void @__cxx_global_var_init() #0 section ".text.startup" {
  call void @_ZNSt8ios_base4InitC1Ev(%"class.std::ios_base::Init"* @_ZStL8__ioinit)
  %1 = call i32 @__cxa_atexit(void (i8*)* bitcast (void (%"class.std::ios_base::Init"*)* @_ZNSt8ios_base4InitD1Ev to void (i8*)*), i8* getelementptr inbounds (%"class.std::ios_base::Init", %"class.std::ios_base::Init"* @_ZStL8__ioinit, i32 0, i32 0), i8* @__dso_handle) #3
  ret void
}

declare dso_local void @_ZNSt8ios_base4InitC1Ev(%"class.std::ios_base::Init"*) unnamed_addr #1

; Function Attrs: nounwind
declare dso_local void @_ZNSt8ios_base4InitD1Ev(%"class.std::ios_base::Init"*) unnamed_addr #2

; Function Attrs: nounwind
declare dso_local i32 @__cxa_atexit(void (i8*)*, i8*, i8*) #3

; Function Attrs: noinline norecurse uwtable
define dso_local i32 @main() #4 {
  %1 = alloca i32, align 4
  %2 = alloca i32, align 4
  %3 = alloca i32, align 4
  %4 = alloca i32, align 4
  store i32 0, i32* %1, align 4
  %5 = call dereferenceable(280) %"class.std::basic_istream"* @_ZNSirsERi(%"class.std::basic_istream"* @_ZSt3cin, i32* dereferenceable(4) %3)
  store i32 2, i32* %2, align 4
  store i32 1, i32* %4, align 4
  br label %6

6:                                                ; preds = %10, %0
  %7 = load i32, i32* %2, align 4
  %8 = load i32, i32* %3, align 4
  %9 = icmp sle i32 %7, %8
  br i1 %9, label %10, label %16

10:                                               ; preds = %6
  %11 = load i32, i32* %4, align 4
  %12 = load i32, i32* %2, align 4
  %13 = mul nsw i32 %11, %12
  store i32 %13, i32* %4, align 4
  %14 = load i32, i32* %2, align 4
  %15 = add nsw i32 %14, 1
  store i32 %15, i32* %2, align 4
  br label %6

16:                                               ; preds = %6
  %17 = load i32, i32* %4, align 4
  %18 = call dereferenceable(272) %"class.std::basic_ostream"* @_ZNSolsEi(%"class.std::basic_ostream"* @_ZSt4cout, i32 %17)
  %19 = call dereferenceable(272) %"class.std::basic_ostream"* @_ZNSolsEPFRSoS_E(%"class.std::basic_ostream"* %18, %"class.std::basic_ostream"* (%"class.std::basic_ostream"*)* @_ZSt4endlIcSt11char_traitsIcEERSt13basic_ostreamIT_T0_ES6_)
  ret i32 0
}

declare dso_local dereferenceable(280) %"class.std::basic_istream"* @_ZNSirsERi(%"class.std::basic_istream"*, i32* dereferenceable(4)) #1

declare dso_local dereferenceable(272) %"class.std::basic_ostream"* @_ZNSolsEi(%"class.std::basic_ostream"*, i32) #1

declare dso_local dereferenceable(272) %"class.std::basic_ostream"* @_ZNSolsEPFRSoS_E(%"class.std::basic_ostream"*, %"class.std::basic_ostream"* (%"class.std::basic_ostream"*)*) #1

declare dso_local dereferenceable(272) %"class.std::basic_ostream"* @_ZSt4endlIcSt11char_traitsIcEERSt13basic_ostreamIT_T0_ES6_(%"class.std::basic_ostream"* dereferenceable(272)) #1

; Function Attrs: noinline uwtable
define internal void @_GLOBAL__sub_I_main.cpp() #0 section ".text.startup" {
  call void @__cxx_global_var_init()
  ret void
}

attributes #0 = { noinline uwtable "correctly-rounded-divide-sqrt-fp-math"="false" "disable-tail-calls"="false" "frame-pointer"="all" "less-precise-fpmad"="false" "min-legal-vector-width"="0" "no-infs-fp-math"="false" "no-jump-tables"="false" "no-nans-fp-math"="false" "no-signed-zeros-fp-math"="false" "no-trapping-math"="false" "stack-protector-buffer-size"="8" "target-cpu"="x86-64" "target-features"="+cx8,+fxsr,+mmx,+sse,+sse2,+x87" "unsafe-fp-math"="false" "use-soft-float"="false" }
attributes #1 = { "correctly-rounded-divide-sqrt-fp-math"="false" "disable-tail-calls"="false" "frame-pointer"="all" "less-precise-fpmad"="false" "no-infs-fp-math"="false" "no-nans-fp-math"="false" "no-signed-zeros-fp-math"="false" "no-trapping-math"="false" "stack-protector-buffer-size"="8" "target-cpu"="x86-64" "target-features"="+cx8,+fxsr,+mmx,+sse,+sse2,+x87" "unsafe-fp-math"="false" "use-soft-float"="false" }
attributes #2 = { nounwind "correctly-rounded-divide-sqrt-fp-math"="false" "disable-tail-calls"="false" "frame-pointer"="all" "less-precise-fpmad"="false" "no-infs-fp-math"="false" "no-nans-fp-math"="false" "no-signed-zeros-fp-math"="false" "no-trapping-math"="false" "stack-protector-buffer-size"="8" "target-cpu"="x86-64" "target-features"="+cx8,+fxsr,+mmx,+sse,+sse2,+x87" "unsafe-fp-math"="false" "use-soft-float"="false" }
attributes #3 = { nounwind }
attributes #4 = { noinline norecurse uwtable "correctly-rounded-divide-sqrt-fp-math"="false" "disable-tail-calls"="false" "frame-pointer"="all" "less-precise-fpmad"="false" "min-legal-vector-width"="0" "no-infs-fp-math"="false" "no-jump-tables"="false" "no-nans-fp-math"="false" "no-signed-zeros-fp-math"="false" "no-trapping-math"="false" "stack-protector-buffer-size"="8" "target-cpu"="x86-64" "target-features"="+cx8,+fxsr,+mmx,+sse,+sse2,+x87" "unsafe-fp-math"="false" "use-soft-float"="false" }

!llvm.module.flags = !{!0}
!llvm.ident = !{!1}

!0 = !{i32 1, !"wchar_size", i32 4}
!1 = !{!"clang version 10.0.0-4ubuntu1 "}
*** IR Dump After Rewrite Symbols ***
; ModuleID = 'main.ll'
source_filename = "main.cpp"
target datalayout = "e-m:e-p270:32:32-p271:32:32-p272:64:64-i64:64-f80:128-n8:16:32:64-S128"
target triple = "x86_64-pc-linux-gnu"

%"class.std::ios_base::Init" = type { i8 }
%"class.std::basic_istream" = type { i32 (...)**, i64, %"class.std::basic_ios" }
%"class.std::basic_ios" = type { %"class.std::ios_base", %"class.std::basic_ostream"*, i8, i8, %"class.std::basic_streambuf"*, %"class.std::ctype"*, %"class.std::num_put"*, %"class.std::num_get"* }
%"class.std::ios_base" = type { i32 (...)**, i64, i64, i32, i32, i32, %"struct.std::ios_base::_Callback_list"*, %"struct.std::ios_base::_Words", [8 x %"struct.std::ios_base::_Words"], i32, %"struct.std::ios_base::_Words"*, %"class.std::locale" }
%"struct.std::ios_base::_Callback_list" = type { %"struct.std::ios_base::_Callback_list"*, void (i32, %"class.std::ios_base"*, i32)*, i32, i32 }
%"struct.std::ios_base::_Words" = type { i8*, i64 }
%"class.std::locale" = type { %"class.std::locale::_Impl"* }
%"class.std::locale::_Impl" = type { i32, %"class.std::locale::facet"**, i64, %"class.std::locale::facet"**, i8** }
%"class.std::locale::facet" = type <{ i32 (...)**, i32, [4 x i8] }>
%"class.std::basic_ostream" = type { i32 (...)**, %"class.std::basic_ios" }
%"class.std::basic_streambuf" = type { i32 (...)**, i8*, i8*, i8*, i8*, i8*, i8*, %"class.std::locale" }
%"class.std::ctype" = type <{ %"class.std::locale::facet.base", [4 x i8], %struct.__locale_struct*, i8, [7 x i8], i32*, i32*, i16*, i8, [256 x i8], [256 x i8], i8, [6 x i8] }>
%"class.std::locale::facet.base" = type <{ i32 (...)**, i32 }>
%struct.__locale_struct = type { [13 x %struct.__locale_data*], i16*, i32*, i32*, [13 x i8*] }
%struct.__locale_data = type opaque
%"class.std::num_put" = type { %"class.std::locale::facet.base", [4 x i8] }
%"class.std::num_get" = type { %"class.std::locale::facet.base", [4 x i8] }

@_ZStL8__ioinit = internal global %"class.std::ios_base::Init" zeroinitializer, align 1
@__dso_handle = external hidden global i8
@_ZSt3cin = external dso_local global %"class.std::basic_istream", align 8
@_ZSt4cout = external dso_local global %"class.std::basic_ostream", align 8
@llvm.global_ctors = appending global [1 x { i32, void ()*, i8* }] [{ i32, void ()*, i8* } { i32 65535, void ()* @_GLOBAL__sub_I_main.cpp, i8* null }]

; Function Attrs: noinline uwtable
define internal void @__cxx_global_var_init() #0 section ".text.startup" {
  call void @_ZNSt8ios_base4InitC1Ev(%"class.std::ios_base::Init"* @_ZStL8__ioinit)
  %1 = call i32 @__cxa_atexit(void (i8*)* bitcast (void (%"class.std::ios_base::Init"*)* @_ZNSt8ios_base4InitD1Ev to void (i8*)*), i8* getelementptr inbounds (%"class.std::ios_base::Init", %"class.std::ios_base::Init"* @_ZStL8__ioinit, i32 0, i32 0), i8* @__dso_handle) #3
  ret void
}

declare dso_local void @_ZNSt8ios_base4InitC1Ev(%"class.std::ios_base::Init"*) unnamed_addr #1

; Function Attrs: nounwind
declare dso_local void @_ZNSt8ios_base4InitD1Ev(%"class.std::ios_base::Init"*) unnamed_addr #2

; Function Attrs: nounwind
declare dso_local i32 @__cxa_atexit(void (i8*)*, i8*, i8*) #3

; Function Attrs: noinline norecurse uwtable
define dso_local i32 @main() #4 {
  %1 = alloca i32, align 4
  %2 = alloca i32, align 4
  %3 = alloca i32, align 4
  %4 = alloca i32, align 4
  store i32 0, i32* %1, align 4
  %5 = call dereferenceable(280) %"class.std::basic_istream"* @_ZNSirsERi(%"class.std::basic_istream"* @_ZSt3cin, i32* dereferenceable(4) %3)
  store i32 2, i32* %2, align 4
  store i32 1, i32* %4, align 4
  br label %6

6:                                                ; preds = %10, %0
  %7 = load i32, i32* %2, align 4
  %8 = load i32, i32* %3, align 4
  %9 = icmp sle i32 %7, %8
  br i1 %9, label %10, label %16

10:                                               ; preds = %6
  %11 = load i32, i32* %4, align 4
  %12 = load i32, i32* %2, align 4
  %13 = mul nsw i32 %11, %12
  store i32 %13, i32* %4, align 4
  %14 = load i32, i32* %2, align 4
  %15 = add nsw i32 %14, 1
  store i32 %15, i32* %2, align 4
  br label %6

16:                                               ; preds = %6
  %17 = load i32, i32* %4, align 4
  %18 = call dereferenceable(272) %"class.std::basic_ostream"* @_ZNSolsEi(%"class.std::basic_ostream"* @_ZSt4cout, i32 %17)
  %19 = call dereferenceable(272) %"class.std::basic_ostream"* @_ZNSolsEPFRSoS_E(%"class.std::basic_ostream"* %18, %"class.std::basic_ostream"* (%"class.std::basic_ostream"*)* @_ZSt4endlIcSt11char_traitsIcEERSt13basic_ostreamIT_T0_ES6_)
  ret i32 0
}

declare dso_local dereferenceable(280) %"class.std::basic_istream"* @_ZNSirsERi(%"class.std::basic_istream"*, i32* dereferenceable(4)) #1

declare dso_local dereferenceable(272) %"class.std::basic_ostream"* @_ZNSolsEi(%"class.std::basic_ostream"*, i32) #1

declare dso_local dereferenceable(272) %"class.std::basic_ostream"* @_ZNSolsEPFRSoS_E(%"class.std::basic_ostream"*, %"class.std::basic_ostream"* (%"class.std::basic_ostream"*)*) #1

declare dso_local dereferenceable(272) %"class.std::basic_ostream"* @_ZSt4endlIcSt11char_traitsIcEERSt13basic_ostreamIT_T0_ES6_(%"class.std::basic_ostream"* dereferenceable(272)) #1

; Function Attrs: noinline uwtable
define internal void @_GLOBAL__sub_I_main.cpp() #0 section ".text.startup" {
  call void @__cxx_global_var_init()
  ret void
}

attributes #0 = { noinline uwtable "correctly-rounded-divide-sqrt-fp-math"="false" "disable-tail-calls"="false" "frame-pointer"="all" "less-precise-fpmad"="false" "min-legal-vector-width"="0" "no-infs-fp-math"="false" "no-jump-tables"="false" "no-nans-fp-math"="false" "no-signed-zeros-fp-math"="false" "no-trapping-math"="false" "stack-protector-buffer-size"="8" "target-cpu"="x86-64" "target-features"="+cx8,+fxsr,+mmx,+sse,+sse2,+x87" "unsafe-fp-math"="false" "use-soft-float"="false" }
attributes #1 = { "correctly-rounded-divide-sqrt-fp-math"="false" "disable-tail-calls"="false" "frame-pointer"="all" "less-precise-fpmad"="false" "no-infs-fp-math"="false" "no-nans-fp-math"="false" "no-signed-zeros-fp-math"="false" "no-trapping-math"="false" "stack-protector-buffer-size"="8" "target-cpu"="x86-64" "target-features"="+cx8,+fxsr,+mmx,+sse,+sse2,+x87" "unsafe-fp-math"="false" "use-soft-float"="false" }
attributes #2 = { nounwind "correctly-rounded-divide-sqrt-fp-math"="false" "disable-tail-calls"="false" "frame-pointer"="all" "less-precise-fpmad"="false" "no-infs-fp-math"="false" "no-nans-fp-math"="false" "no-signed-zeros-fp-math"="false" "no-trapping-math"="false" "stack-protector-buffer-size"="8" "target-cpu"="x86-64" "target-features"="+cx8,+fxsr,+mmx,+sse,+sse2,+x87" "unsafe-fp-math"="false" "use-soft-float"="false" }
attributes #3 = { nounwind }
attributes #4 = { noinline norecurse uwtable "correctly-rounded-divide-sqrt-fp-math"="false" "disable-tail-calls"="false" "frame-pointer"="all" "less-precise-fpmad"="false" "min-legal-vector-width"="0" "no-infs-fp-math"="false" "no-jump-tables"="false" "no-nans-fp-math"="false" "no-signed-zeros-fp-math"="false" "no-trapping-math"="false" "stack-protector-buffer-size"="8" "target-cpu"="x86-64" "target-features"="+cx8,+fxsr,+mmx,+sse,+sse2,+x87" "unsafe-fp-math"="false" "use-soft-float"="false" }

!llvm.module.flags = !{!0}
!llvm.ident = !{!1}

!0 = !{i32 1, !"wchar_size", i32 4}
!1 = !{!"clang version 10.0.0-4ubuntu1 "}
*** IR Dump Before Exception handling preparation ***
; Function Attrs: noinline uwtable
define internal void @__cxx_global_var_init() #0 section ".text.startup" {
  call void @_ZNSt8ios_base4InitC1Ev(%"class.std::ios_base::Init"* @_ZStL8__ioinit)
  %1 = call i32 @__cxa_atexit(void (i8*)* bitcast (void (%"class.std::ios_base::Init"*)* @_ZNSt8ios_base4InitD1Ev to void (i8*)*), i8* getelementptr inbounds (%"class.std::ios_base::Init", %"class.std::ios_base::Init"* @_ZStL8__ioinit, i32 0, i32 0), i8* @__dso_handle) #3
  ret void
}
*** IR Dump After Exception handling preparation ***
; Function Attrs: noinline uwtable
define internal void @__cxx_global_var_init() #0 section ".text.startup" {
  call void @_ZNSt8ios_base4InitC1Ev(%"class.std::ios_base::Init"* @_ZStL8__ioinit)
  %1 = call i32 @__cxa_atexit(void (i8*)* bitcast (void (%"class.std::ios_base::Init"*)* @_ZNSt8ios_base4InitD1Ev to void (i8*)*), i8* getelementptr inbounds (%"class.std::ios_base::Init", %"class.std::ios_base::Init"* @_ZStL8__ioinit, i32 0, i32 0), i8* @__dso_handle) #3
  ret void
}
*** IR Dump Before Safe Stack instrumentation pass ***
; Function Attrs: noinline uwtable
define internal void @__cxx_global_var_init() #0 section ".text.startup" {
  call void @_ZNSt8ios_base4InitC1Ev(%"class.std::ios_base::Init"* @_ZStL8__ioinit)
  %1 = call i32 @__cxa_atexit(void (i8*)* bitcast (void (%"class.std::ios_base::Init"*)* @_ZNSt8ios_base4InitD1Ev to void (i8*)*), i8* getelementptr inbounds (%"class.std::ios_base::Init", %"class.std::ios_base::Init"* @_ZStL8__ioinit, i32 0, i32 0), i8* @__dso_handle) #3
  ret void
}
*** IR Dump After Safe Stack instrumentation pass ***
; Function Attrs: noinline uwtable
define internal void @__cxx_global_var_init() #0 section ".text.startup" {
  call void @_ZNSt8ios_base4InitC1Ev(%"class.std::ios_base::Init"* @_ZStL8__ioinit)
  %1 = call i32 @__cxa_atexit(void (i8*)* bitcast (void (%"class.std::ios_base::Init"*)* @_ZNSt8ios_base4InitD1Ev to void (i8*)*), i8* getelementptr inbounds (%"class.std::ios_base::Init", %"class.std::ios_base::Init"* @_ZStL8__ioinit, i32 0, i32 0), i8* @__dso_handle) #3
  ret void
}
*** IR Dump Before Module Verifier ***
; Function Attrs: noinline uwtable
define internal void @__cxx_global_var_init() #0 section ".text.startup" {
  call void @_ZNSt8ios_base4InitC1Ev(%"class.std::ios_base::Init"* @_ZStL8__ioinit)
  %1 = call i32 @__cxa_atexit(void (i8*)* bitcast (void (%"class.std::ios_base::Init"*)* @_ZNSt8ios_base4InitD1Ev to void (i8*)*), i8* getelementptr inbounds (%"class.std::ios_base::Init", %"class.std::ios_base::Init"* @_ZStL8__ioinit, i32 0, i32 0), i8* @__dso_handle) #3
  ret void
}
*** IR Dump After Module Verifier ***
; Function Attrs: noinline uwtable
define internal void @__cxx_global_var_init() #0 section ".text.startup" {
  call void @_ZNSt8ios_base4InitC1Ev(%"class.std::ios_base::Init"* @_ZStL8__ioinit)
  %1 = call i32 @__cxa_atexit(void (i8*)* bitcast (void (%"class.std::ios_base::Init"*)* @_ZNSt8ios_base4InitD1Ev to void (i8*)*), i8* getelementptr inbounds (%"class.std::ios_base::Init", %"class.std::ios_base::Init"* @_ZStL8__ioinit, i32 0, i32 0), i8* @__dso_handle) #3
  ret void
}
# *** IR Dump Before X86 DAG->DAG Instruction Selection ***:
# Machine code for function __cxx_global_var_init: IsSSA, TracksLiveness

# End machine code for function __cxx_global_var_init.

# *** IR Dump After X86 DAG->DAG Instruction Selection ***:
# Machine code for function __cxx_global_var_init: IsSSA, TracksLiveness

bb.0 (%ir-block.0):
  ADJCALLSTACKDOWN64 0, 0, 0, implicit-def dead $rsp, implicit-def dead $eflags, implicit-def dead $ssp, implicit $rsp, implicit $ssp
  %0:gr64 = MOV32ri64 @_ZStL8__ioinit
  $rdi = COPY %0:gr64
  CALL64pcrel32 @_ZNSt8ios_base4InitC1Ev, <regmask $bh $bl $bp $bph $bpl $bx $ebp $ebx $hbp $hbx $rbp $rbx $r12 $r13 $r14 $r15 $r12b $r13b $r14b $r15b $r12bh $r13bh $r14bh $r15bh $r12d $r13d $r14d $r15d $r12w $r13w $r14w $r15w $r12wh and 3 more...>, implicit $rsp, implicit $ssp, implicit $rdi, implicit-def $rsp, implicit-def $ssp
  ADJCALLSTACKUP64 0, 0, implicit-def dead $rsp, implicit-def dead $eflags, implicit-def dead $ssp, implicit $rsp, implicit $ssp
  ADJCALLSTACKDOWN64 0, 0, 0, implicit-def dead $rsp, implicit-def dead $eflags, implicit-def dead $ssp, implicit $rsp, implicit $ssp
  %1:gr64 = MOV32ri64 @_ZNSt8ios_base4InitD1Ev
  %2:gr64 = MOV32ri64 @__dso_handle
  $rdi = COPY %1:gr64
  $rsi = COPY %0:gr64
  $rdx = COPY %2:gr64
  CALL64pcrel32 @__cxa_atexit, <regmask $bh $bl $bp $bph $bpl $bx $ebp $ebx $hbp $hbx $rbp $rbx $r12 $r13 $r14 $r15 $r12b $r13b $r14b $r15b $r12bh $r13bh $r14bh $r15bh $r12d $r13d $r14d $r15d $r12w $r13w $r14w $r15w $r12wh and 3 more...>, implicit $rsp, implicit $ssp, implicit $rdi, implicit $rsi, implicit $rdx, implicit-def $rsp, implicit-def $ssp, implicit-def $eax
  ADJCALLSTACKUP64 0, 0, implicit-def dead $rsp, implicit-def dead $eflags, implicit-def dead $ssp, implicit $rsp, implicit $ssp
  %3:gr32 = COPY $eax
  RET 0

# End machine code for function __cxx_global_var_init.

# *** IR Dump Before Finalize ISel and expand pseudo-instructions ***:
# Machine code for function __cxx_global_var_init: IsSSA, TracksLiveness

bb.0 (%ir-block.0):
  ADJCALLSTACKDOWN64 0, 0, 0, implicit-def dead $rsp, implicit-def dead $eflags, implicit-def dead $ssp, implicit $rsp, implicit $ssp
  %0:gr64 = MOV32ri64 @_ZStL8__ioinit
  $rdi = COPY %0:gr64
  CALL64pcrel32 @_ZNSt8ios_base4InitC1Ev, <regmask $bh $bl $bp $bph $bpl $bx $ebp $ebx $hbp $hbx $rbp $rbx $r12 $r13 $r14 $r15 $r12b $r13b $r14b $r15b $r12bh $r13bh $r14bh $r15bh $r12d $r13d $r14d $r15d $r12w $r13w $r14w $r15w $r12wh and 3 more...>, implicit $rsp, implicit $ssp, implicit $rdi, implicit-def $rsp, implicit-def $ssp
  ADJCALLSTACKUP64 0, 0, implicit-def dead $rsp, implicit-def dead $eflags, implicit-def dead $ssp, implicit $rsp, implicit $ssp
  ADJCALLSTACKDOWN64 0, 0, 0, implicit-def dead $rsp, implicit-def dead $eflags, implicit-def dead $ssp, implicit $rsp, implicit $ssp
  %1:gr64 = MOV32ri64 @_ZNSt8ios_base4InitD1Ev
  %2:gr64 = MOV32ri64 @__dso_handle
  $rdi = COPY %1:gr64
  $rsi = COPY %0:gr64
  $rdx = COPY %2:gr64
  CALL64pcrel32 @__cxa_atexit, <regmask $bh $bl $bp $bph $bpl $bx $ebp $ebx $hbp $hbx $rbp $rbx $r12 $r13 $r14 $r15 $r12b $r13b $r14b $r15b $r12bh $r13bh $r14bh $r15bh $r12d $r13d $r14d $r15d $r12w $r13w $r14w $r15w $r12wh and 3 more...>, implicit $rsp, implicit $ssp, implicit $rdi, implicit $rsi, implicit $rdx, implicit-def $rsp, implicit-def $ssp, implicit-def $eax
  ADJCALLSTACKUP64 0, 0, implicit-def dead $rsp, implicit-def dead $eflags, implicit-def dead $ssp, implicit $rsp, implicit $ssp
  %3:gr32 = COPY $eax
  RET 0

# End machine code for function __cxx_global_var_init.

# *** IR Dump After Finalize ISel and expand pseudo-instructions ***:
# Machine code for function __cxx_global_var_init: IsSSA, TracksLiveness

bb.0 (%ir-block.0):
  ADJCALLSTACKDOWN64 0, 0, 0, implicit-def dead $rsp, implicit-def dead $eflags, implicit-def dead $ssp, implicit $rsp, implicit $ssp
  %0:gr64 = MOV32ri64 @_ZStL8__ioinit
  $rdi = COPY %0:gr64
  CALL64pcrel32 @_ZNSt8ios_base4InitC1Ev, <regmask $bh $bl $bp $bph $bpl $bx $ebp $ebx $hbp $hbx $rbp $rbx $r12 $r13 $r14 $r15 $r12b $r13b $r14b $r15b $r12bh $r13bh $r14bh $r15bh $r12d $r13d $r14d $r15d $r12w $r13w $r14w $r15w $r12wh and 3 more...>, implicit $rsp, implicit $ssp, implicit $rdi, implicit-def $rsp, implicit-def $ssp
  ADJCALLSTACKUP64 0, 0, implicit-def dead $rsp, implicit-def dead $eflags, implicit-def dead $ssp, implicit $rsp, implicit $ssp
  ADJCALLSTACKDOWN64 0, 0, 0, implicit-def dead $rsp, implicit-def dead $eflags, implicit-def dead $ssp, implicit $rsp, implicit $ssp
  %1:gr64 = MOV32ri64 @_ZNSt8ios_base4InitD1Ev
  %2:gr64 = MOV32ri64 @__dso_handle
  $rdi = COPY %1:gr64
  $rsi = COPY %0:gr64
  $rdx = COPY %2:gr64
  CALL64pcrel32 @__cxa_atexit, <regmask $bh $bl $bp $bph $bpl $bx $ebp $ebx $hbp $hbx $rbp $rbx $r12 $r13 $r14 $r15 $r12b $r13b $r14b $r15b $r12bh $r13bh $r14bh $r15bh $r12d $r13d $r14d $r15d $r12w $r13w $r14w $r15w $r12wh and 3 more...>, implicit $rsp, implicit $ssp, implicit $rdi, implicit $rsi, implicit $rdx, implicit-def $rsp, implicit-def $ssp, implicit-def $eax
  ADJCALLSTACKUP64 0, 0, implicit-def dead $rsp, implicit-def dead $eflags, implicit-def dead $ssp, implicit $rsp, implicit $ssp
  %3:gr32 = COPY $eax
  RET 0

# End machine code for function __cxx_global_var_init.

# *** IR Dump Before X86 Domain Reassignment Pass ***:
# Machine code for function __cxx_global_var_init: IsSSA, TracksLiveness

bb.0 (%ir-block.0):
  ADJCALLSTACKDOWN64 0, 0, 0, implicit-def dead $rsp, implicit-def dead $eflags, implicit-def dead $ssp, implicit $rsp, implicit $ssp
  %0:gr64 = MOV32ri64 @_ZStL8__ioinit
  $rdi = COPY %0:gr64
  CALL64pcrel32 @_ZNSt8ios_base4InitC1Ev, <regmask $bh $bl $bp $bph $bpl $bx $ebp $ebx $hbp $hbx $rbp $rbx $r12 $r13 $r14 $r15 $r12b $r13b $r14b $r15b $r12bh $r13bh $r14bh $r15bh $r12d $r13d $r14d $r15d $r12w $r13w $r14w $r15w $r12wh and 3 more...>, implicit $rsp, implicit $ssp, implicit $rdi, implicit-def $rsp, implicit-def $ssp
  ADJCALLSTACKUP64 0, 0, implicit-def dead $rsp, implicit-def dead $eflags, implicit-def dead $ssp, implicit $rsp, implicit $ssp
  ADJCALLSTACKDOWN64 0, 0, 0, implicit-def dead $rsp, implicit-def dead $eflags, implicit-def dead $ssp, implicit $rsp, implicit $ssp
  %1:gr64 = MOV32ri64 @_ZNSt8ios_base4InitD1Ev
  %2:gr64 = MOV32ri64 @__dso_handle
  $rdi = COPY %1:gr64
  $rsi = COPY %0:gr64
  $rdx = COPY %2:gr64
  CALL64pcrel32 @__cxa_atexit, <regmask $bh $bl $bp $bph $bpl $bx $ebp $ebx $hbp $hbx $rbp $rbx $r12 $r13 $r14 $r15 $r12b $r13b $r14b $r15b $r12bh $r13bh $r14bh $r15bh $r12d $r13d $r14d $r15d $r12w $r13w $r14w $r15w $r12wh and 3 more...>, implicit $rsp, implicit $ssp, implicit $rdi, implicit $rsi, implicit $rdx, implicit-def $rsp, implicit-def $ssp, implicit-def $eax
  ADJCALLSTACKUP64 0, 0, implicit-def dead $rsp, implicit-def dead $eflags, implicit-def dead $ssp, implicit $rsp, implicit $ssp
  %3:gr32 = COPY $eax
  RET 0

# End machine code for function __cxx_global_var_init.

# *** IR Dump After X86 Domain Reassignment Pass ***:
# Machine code for function __cxx_global_var_init: IsSSA, TracksLiveness

bb.0 (%ir-block.0):
  ADJCALLSTACKDOWN64 0, 0, 0, implicit-def dead $rsp, implicit-def dead $eflags, implicit-def dead $ssp, implicit $rsp, implicit $ssp
  %0:gr64 = MOV32ri64 @_ZStL8__ioinit
  $rdi = COPY %0:gr64
  CALL64pcrel32 @_ZNSt8ios_base4InitC1Ev, <regmask $bh $bl $bp $bph $bpl $bx $ebp $ebx $hbp $hbx $rbp $rbx $r12 $r13 $r14 $r15 $r12b $r13b $r14b $r15b $r12bh $r13bh $r14bh $r15bh $r12d $r13d $r14d $r15d $r12w $r13w $r14w $r15w $r12wh and 3 more...>, implicit $rsp, implicit $ssp, implicit $rdi, implicit-def $rsp, implicit-def $ssp
  ADJCALLSTACKUP64 0, 0, implicit-def dead $rsp, implicit-def dead $eflags, implicit-def dead $ssp, implicit $rsp, implicit $ssp
  ADJCALLSTACKDOWN64 0, 0, 0, implicit-def dead $rsp, implicit-def dead $eflags, implicit-def dead $ssp, implicit $rsp, implicit $ssp
  %1:gr64 = MOV32ri64 @_ZNSt8ios_base4InitD1Ev
  %2:gr64 = MOV32ri64 @__dso_handle
  $rdi = COPY %1:gr64
  $rsi = COPY %0:gr64
  $rdx = COPY %2:gr64
  CALL64pcrel32 @__cxa_atexit, <regmask $bh $bl $bp $bph $bpl $bx $ebp $ebx $hbp $hbx $rbp $rbx $r12 $r13 $r14 $r15 $r12b $r13b $r14b $r15b $r12bh $r13bh $r14bh $r15bh $r12d $r13d $r14d $r15d $r12w $r13w $r14w $r15w $r12wh and 3 more...>, implicit $rsp, implicit $ssp, implicit $rdi, implicit $rsi, implicit $rdx, implicit-def $rsp, implicit-def $ssp, implicit-def $eax
  ADJCALLSTACKUP64 0, 0, implicit-def dead $rsp, implicit-def dead $eflags, implicit-def dead $ssp, implicit $rsp, implicit $ssp
  %3:gr32 = COPY $eax
  RET 0

# End machine code for function __cxx_global_var_init.

# *** IR Dump Before Early Tail Duplication ***:
# Machine code for function __cxx_global_var_init: IsSSA, TracksLiveness

bb.0 (%ir-block.0):
  ADJCALLSTACKDOWN64 0, 0, 0, implicit-def dead $rsp, implicit-def dead $eflags, implicit-def dead $ssp, implicit $rsp, implicit $ssp
  %0:gr64 = MOV32ri64 @_ZStL8__ioinit
  $rdi = COPY %0:gr64
  CALL64pcrel32 @_ZNSt8ios_base4InitC1Ev, <regmask $bh $bl $bp $bph $bpl $bx $ebp $ebx $hbp $hbx $rbp $rbx $r12 $r13 $r14 $r15 $r12b $r13b $r14b $r15b $r12bh $r13bh $r14bh $r15bh $r12d $r13d $r14d $r15d $r12w $r13w $r14w $r15w $r12wh and 3 more...>, implicit $rsp, implicit $ssp, implicit $rdi, implicit-def $rsp, implicit-def $ssp
  ADJCALLSTACKUP64 0, 0, implicit-def dead $rsp, implicit-def dead $eflags, implicit-def dead $ssp, implicit $rsp, implicit $ssp
  ADJCALLSTACKDOWN64 0, 0, 0, implicit-def dead $rsp, implicit-def dead $eflags, implicit-def dead $ssp, implicit $rsp, implicit $ssp
  %1:gr64 = MOV32ri64 @_ZNSt8ios_base4InitD1Ev
  %2:gr64 = MOV32ri64 @__dso_handle
  $rdi = COPY %1:gr64
  $rsi = COPY %0:gr64
  $rdx = COPY %2:gr64
  CALL64pcrel32 @__cxa_atexit, <regmask $bh $bl $bp $bph $bpl $bx $ebp $ebx $hbp $hbx $rbp $rbx $r12 $r13 $r14 $r15 $r12b $r13b $r14b $r15b $r12bh $r13bh $r14bh $r15bh $r12d $r13d $r14d $r15d $r12w $r13w $r14w $r15w $r12wh and 3 more...>, implicit $rsp, implicit $ssp, implicit $rdi, implicit $rsi, implicit $rdx, implicit-def $rsp, implicit-def $ssp, implicit-def $eax
  ADJCALLSTACKUP64 0, 0, implicit-def dead $rsp, implicit-def dead $eflags, implicit-def dead $ssp, implicit $rsp, implicit $ssp
  %3:gr32 = COPY $eax
  RET 0

# End machine code for function __cxx_global_var_init.

# *** IR Dump After Early Tail Duplication ***:
# Machine code for function __cxx_global_var_init: IsSSA, TracksLiveness

bb.0 (%ir-block.0):
  ADJCALLSTACKDOWN64 0, 0, 0, implicit-def dead $rsp, implicit-def dead $eflags, implicit-def dead $ssp, implicit $rsp, implicit $ssp
  %0:gr64 = MOV32ri64 @_ZStL8__ioinit
  $rdi = COPY %0:gr64
  CALL64pcrel32 @_ZNSt8ios_base4InitC1Ev, <regmask $bh $bl $bp $bph $bpl $bx $ebp $ebx $hbp $hbx $rbp $rbx $r12 $r13 $r14 $r15 $r12b $r13b $r14b $r15b $r12bh $r13bh $r14bh $r15bh $r12d $r13d $r14d $r15d $r12w $r13w $r14w $r15w $r12wh and 3 more...>, implicit $rsp, implicit $ssp, implicit $rdi, implicit-def $rsp, implicit-def $ssp
  ADJCALLSTACKUP64 0, 0, implicit-def dead $rsp, implicit-def dead $eflags, implicit-def dead $ssp, implicit $rsp, implicit $ssp
  ADJCALLSTACKDOWN64 0, 0, 0, implicit-def dead $rsp, implicit-def dead $eflags, implicit-def dead $ssp, implicit $rsp, implicit $ssp
  %1:gr64 = MOV32ri64 @_ZNSt8ios_base4InitD1Ev
  %2:gr64 = MOV32ri64 @__dso_handle
  $rdi = COPY %1:gr64
  $rsi = COPY %0:gr64
  $rdx = COPY %2:gr64
  CALL64pcrel32 @__cxa_atexit, <regmask $bh $bl $bp $bph $bpl $bx $ebp $ebx $hbp $hbx $rbp $rbx $r12 $r13 $r14 $r15 $r12b $r13b $r14b $r15b $r12bh $r13bh $r14bh $r15bh $r12d $r13d $r14d $r15d $r12w $r13w $r14w $r15w $r12wh and 3 more...>, implicit $rsp, implicit $ssp, implicit $rdi, implicit $rsi, implicit $rdx, implicit-def $rsp, implicit-def $ssp, implicit-def $eax
  ADJCALLSTACKUP64 0, 0, implicit-def dead $rsp, implicit-def dead $eflags, implicit-def dead $ssp, implicit $rsp, implicit $ssp
  %3:gr32 = COPY $eax
  RET 0

# End machine code for function __cxx_global_var_init.

# *** IR Dump Before Optimize machine instruction PHIs ***:
# Machine code for function __cxx_global_var_init: IsSSA, TracksLiveness

bb.0 (%ir-block.0):
  ADJCALLSTACKDOWN64 0, 0, 0, implicit-def dead $rsp, implicit-def dead $eflags, implicit-def dead $ssp, implicit $rsp, implicit $ssp
  %0:gr64 = MOV32ri64 @_ZStL8__ioinit
  $rdi = COPY %0:gr64
  CALL64pcrel32 @_ZNSt8ios_base4InitC1Ev, <regmask $bh $bl $bp $bph $bpl $bx $ebp $ebx $hbp $hbx $rbp $rbx $r12 $r13 $r14 $r15 $r12b $r13b $r14b $r15b $r12bh $r13bh $r14bh $r15bh $r12d $r13d $r14d $r15d $r12w $r13w $r14w $r15w $r12wh and 3 more...>, implicit $rsp, implicit $ssp, implicit $rdi, implicit-def $rsp, implicit-def $ssp
  ADJCALLSTACKUP64 0, 0, implicit-def dead $rsp, implicit-def dead $eflags, implicit-def dead $ssp, implicit $rsp, implicit $ssp
  ADJCALLSTACKDOWN64 0, 0, 0, implicit-def dead $rsp, implicit-def dead $eflags, implicit-def dead $ssp, implicit $rsp, implicit $ssp
  %1:gr64 = MOV32ri64 @_ZNSt8ios_base4InitD1Ev
  %2:gr64 = MOV32ri64 @__dso_handle
  $rdi = COPY %1:gr64
  $rsi = COPY %0:gr64
  $rdx = COPY %2:gr64
  CALL64pcrel32 @__cxa_atexit, <regmask $bh $bl $bp $bph $bpl $bx $ebp $ebx $hbp $hbx $rbp $rbx $r12 $r13 $r14 $r15 $r12b $r13b $r14b $r15b $r12bh $r13bh $r14bh $r15bh $r12d $r13d $r14d $r15d $r12w $r13w $r14w $r15w $r12wh and 3 more...>, implicit $rsp, implicit $ssp, implicit $rdi, implicit $rsi, implicit $rdx, implicit-def $rsp, implicit-def $ssp, implicit-def $eax
  ADJCALLSTACKUP64 0, 0, implicit-def dead $rsp, implicit-def dead $eflags, implicit-def dead $ssp, implicit $rsp, implicit $ssp
  %3:gr32 = COPY $eax
  RET 0

# End machine code for function __cxx_global_var_init.

# *** IR Dump After Optimize machine instruction PHIs ***:
# Machine code for function __cxx_global_var_init: IsSSA, TracksLiveness

bb.0 (%ir-block.0):
  ADJCALLSTACKDOWN64 0, 0, 0, implicit-def dead $rsp, implicit-def dead $eflags, implicit-def dead $ssp, implicit $rsp, implicit $ssp
  %0:gr64 = MOV32ri64 @_ZStL8__ioinit
  $rdi = COPY %0:gr64
  CALL64pcrel32 @_ZNSt8ios_base4InitC1Ev, <regmask $bh $bl $bp $bph $bpl $bx $ebp $ebx $hbp $hbx $rbp $rbx $r12 $r13 $r14 $r15 $r12b $r13b $r14b $r15b $r12bh $r13bh $r14bh $r15bh $r12d $r13d $r14d $r15d $r12w $r13w $r14w $r15w $r12wh and 3 more...>, implicit $rsp, implicit $ssp, implicit $rdi, implicit-def $rsp, implicit-def $ssp
  ADJCALLSTACKUP64 0, 0, implicit-def dead $rsp, implicit-def dead $eflags, implicit-def dead $ssp, implicit $rsp, implicit $ssp
  ADJCALLSTACKDOWN64 0, 0, 0, implicit-def dead $rsp, implicit-def dead $eflags, implicit-def dead $ssp, implicit $rsp, implicit $ssp
  %1:gr64 = MOV32ri64 @_ZNSt8ios_base4InitD1Ev
  %2:gr64 = MOV32ri64 @__dso_handle
  $rdi = COPY %1:gr64
  $rsi = COPY %0:gr64
  $rdx = COPY %2:gr64
  CALL64pcrel32 @__cxa_atexit, <regmask $bh $bl $bp $bph $bpl $bx $ebp $ebx $hbp $hbx $rbp $rbx $r12 $r13 $r14 $r15 $r12b $r13b $r14b $r15b $r12bh $r13bh $r14bh $r15bh $r12d $r13d $r14d $r15d $r12w $r13w $r14w $r15w $r12wh and 3 more...>, implicit $rsp, implicit $ssp, implicit $rdi, implicit $rsi, implicit $rdx, implicit-def $rsp, implicit-def $ssp, implicit-def $eax
  ADJCALLSTACKUP64 0, 0, implicit-def dead $rsp, implicit-def dead $eflags, implicit-def dead $ssp, implicit $rsp, implicit $ssp
  %3:gr32 = COPY $eax
  RET 0

# End machine code for function __cxx_global_var_init.

# *** IR Dump Before Slot index numbering ***:
# Machine code for function __cxx_global_var_init: IsSSA, TracksLiveness

bb.0 (%ir-block.0):
  ADJCALLSTACKDOWN64 0, 0, 0, implicit-def dead $rsp, implicit-def dead $eflags, implicit-def dead $ssp, implicit $rsp, implicit $ssp
  %0:gr64 = MOV32ri64 @_ZStL8__ioinit
  $rdi = COPY %0:gr64
  CALL64pcrel32 @_ZNSt8ios_base4InitC1Ev, <regmask $bh $bl $bp $bph $bpl $bx $ebp $ebx $hbp $hbx $rbp $rbx $r12 $r13 $r14 $r15 $r12b $r13b $r14b $r15b $r12bh $r13bh $r14bh $r15bh $r12d $r13d $r14d $r15d $r12w $r13w $r14w $r15w $r12wh and 3 more...>, implicit $rsp, implicit $ssp, implicit $rdi, implicit-def $rsp, implicit-def $ssp
  ADJCALLSTACKUP64 0, 0, implicit-def dead $rsp, implicit-def dead $eflags, implicit-def dead $ssp, implicit $rsp, implicit $ssp
  ADJCALLSTACKDOWN64 0, 0, 0, implicit-def dead $rsp, implicit-def dead $eflags, implicit-def dead $ssp, implicit $rsp, implicit $ssp
  %1:gr64 = MOV32ri64 @_ZNSt8ios_base4InitD1Ev
  %2:gr64 = MOV32ri64 @__dso_handle
  $rdi = COPY %1:gr64
  $rsi = COPY %0:gr64
  $rdx = COPY %2:gr64
  CALL64pcrel32 @__cxa_atexit, <regmask $bh $bl $bp $bph $bpl $bx $ebp $ebx $hbp $hbx $rbp $rbx $r12 $r13 $r14 $r15 $r12b $r13b $r14b $r15b $r12bh $r13bh $r14bh $r15bh $r12d $r13d $r14d $r15d $r12w $r13w $r14w $r15w $r12wh and 3 more...>, implicit $rsp, implicit $ssp, implicit $rdi, implicit $rsi, implicit $rdx, implicit-def $rsp, implicit-def $ssp, implicit-def $eax
  ADJCALLSTACKUP64 0, 0, implicit-def dead $rsp, implicit-def dead $eflags, implicit-def dead $ssp, implicit $rsp, implicit $ssp
  %3:gr32 = COPY $eax
  RET 0

# End machine code for function __cxx_global_var_init.

# *** IR Dump After Slot index numbering ***:
# Machine code for function __cxx_global_var_init: IsSSA, TracksLiveness

0B	bb.0 (%ir-block.0):
16B	  ADJCALLSTACKDOWN64 0, 0, 0, implicit-def dead $rsp, implicit-def dead $eflags, implicit-def dead $ssp, implicit $rsp, implicit $ssp
32B	  %0:gr64 = MOV32ri64 @_ZStL8__ioinit
48B	  $rdi = COPY %0:gr64
64B	  CALL64pcrel32 @_ZNSt8ios_base4InitC1Ev, <regmask $bh $bl $bp $bph $bpl $bx $ebp $ebx $hbp $hbx $rbp $rbx $r12 $r13 $r14 $r15 $r12b $r13b $r14b $r15b $r12bh $r13bh $r14bh $r15bh $r12d $r13d $r14d $r15d $r12w $r13w $r14w $r15w $r12wh and 3 more...>, implicit $rsp, implicit $ssp, implicit $rdi, implicit-def $rsp, implicit-def $ssp
80B	  ADJCALLSTACKUP64 0, 0, implicit-def dead $rsp, implicit-def dead $eflags, implicit-def dead $ssp, implicit $rsp, implicit $ssp
96B	  ADJCALLSTACKDOWN64 0, 0, 0, implicit-def dead $rsp, implicit-def dead $eflags, implicit-def dead $ssp, implicit $rsp, implicit $ssp
112B	  %1:gr64 = MOV32ri64 @_ZNSt8ios_base4InitD1Ev
128B	  %2:gr64 = MOV32ri64 @__dso_handle
144B	  $rdi = COPY %1:gr64
160B	  $rsi = COPY %0:gr64
176B	  $rdx = COPY %2:gr64
192B	  CALL64pcrel32 @__cxa_atexit, <regmask $bh $bl $bp $bph $bpl $bx $ebp $ebx $hbp $hbx $rbp $rbx $r12 $r13 $r14 $r15 $r12b $r13b $r14b $r15b $r12bh $r13bh $r14bh $r15bh $r12d $r13d $r14d $r15d $r12w $r13w $r14w $r15w $r12wh and 3 more...>, implicit $rsp, implicit $ssp, implicit $rdi, implicit $rsi, implicit $rdx, implicit-def $rsp, implicit-def $ssp, implicit-def $eax
208B	  ADJCALLSTACKUP64 0, 0, implicit-def dead $rsp, implicit-def dead $eflags, implicit-def dead $ssp, implicit $rsp, implicit $ssp
224B	  %3:gr32 = COPY $eax
240B	  RET 0

# End machine code for function __cxx_global_var_init.

# *** IR Dump Before Merge disjoint stack slots ***:
# Machine code for function __cxx_global_var_init: IsSSA, TracksLiveness

0B	bb.0 (%ir-block.0):
16B	  ADJCALLSTACKDOWN64 0, 0, 0, implicit-def dead $rsp, implicit-def dead $eflags, implicit-def dead $ssp, implicit $rsp, implicit $ssp
32B	  %0:gr64 = MOV32ri64 @_ZStL8__ioinit
48B	  $rdi = COPY %0:gr64
64B	  CALL64pcrel32 @_ZNSt8ios_base4InitC1Ev, <regmask $bh $bl $bp $bph $bpl $bx $ebp $ebx $hbp $hbx $rbp $rbx $r12 $r13 $r14 $r15 $r12b $r13b $r14b $r15b $r12bh $r13bh $r14bh $r15bh $r12d $r13d $r14d $r15d $r12w $r13w $r14w $r15w $r12wh and 3 more...>, implicit $rsp, implicit $ssp, implicit $rdi, implicit-def $rsp, implicit-def $ssp
80B	  ADJCALLSTACKUP64 0, 0, implicit-def dead $rsp, implicit-def dead $eflags, implicit-def dead $ssp, implicit $rsp, implicit $ssp
96B	  ADJCALLSTACKDOWN64 0, 0, 0, implicit-def dead $rsp, implicit-def dead $eflags, implicit-def dead $ssp, implicit $rsp, implicit $ssp
112B	  %1:gr64 = MOV32ri64 @_ZNSt8ios_base4InitD1Ev
128B	  %2:gr64 = MOV32ri64 @__dso_handle
144B	  $rdi = COPY %1:gr64
160B	  $rsi = COPY %0:gr64
176B	  $rdx = COPY %2:gr64
192B	  CALL64pcrel32 @__cxa_atexit, <regmask $bh $bl $bp $bph $bpl $bx $ebp $ebx $hbp $hbx $rbp $rbx $r12 $r13 $r14 $r15 $r12b $r13b $r14b $r15b $r12bh $r13bh $r14bh $r15bh $r12d $r13d $r14d $r15d $r12w $r13w $r14w $r15w $r12wh and 3 more...>, implicit $rsp, implicit $ssp, implicit $rdi, implicit $rsi, implicit $rdx, implicit-def $rsp, implicit-def $ssp, implicit-def $eax
208B	  ADJCALLSTACKUP64 0, 0, implicit-def dead $rsp, implicit-def dead $eflags, implicit-def dead $ssp, implicit $rsp, implicit $ssp
224B	  %3:gr32 = COPY $eax
240B	  RET 0

# End machine code for function __cxx_global_var_init.

# *** IR Dump After Merge disjoint stack slots ***:
# Machine code for function __cxx_global_var_init: IsSSA, TracksLiveness

bb.0 (%ir-block.0):
  ADJCALLSTACKDOWN64 0, 0, 0, implicit-def dead $rsp, implicit-def dead $eflags, implicit-def dead $ssp, implicit $rsp, implicit $ssp
  %0:gr64 = MOV32ri64 @_ZStL8__ioinit
  $rdi = COPY %0:gr64
  CALL64pcrel32 @_ZNSt8ios_base4InitC1Ev, <regmask $bh $bl $bp $bph $bpl $bx $ebp $ebx $hbp $hbx $rbp $rbx $r12 $r13 $r14 $r15 $r12b $r13b $r14b $r15b $r12bh $r13bh $r14bh $r15bh $r12d $r13d $r14d $r15d $r12w $r13w $r14w $r15w $r12wh and 3 more...>, implicit $rsp, implicit $ssp, implicit $rdi, implicit-def $rsp, implicit-def $ssp
  ADJCALLSTACKUP64 0, 0, implicit-def dead $rsp, implicit-def dead $eflags, implicit-def dead $ssp, implicit $rsp, implicit $ssp
  ADJCALLSTACKDOWN64 0, 0, 0, implicit-def dead $rsp, implicit-def dead $eflags, implicit-def dead $ssp, implicit $rsp, implicit $ssp
  %1:gr64 = MOV32ri64 @_ZNSt8ios_base4InitD1Ev
  %2:gr64 = MOV32ri64 @__dso_handle
  $rdi = COPY %1:gr64
  $rsi = COPY %0:gr64
  $rdx = COPY %2:gr64
  CALL64pcrel32 @__cxa_atexit, <regmask $bh $bl $bp $bph $bpl $bx $ebp $ebx $hbp $hbx $rbp $rbx $r12 $r13 $r14 $r15 $r12b $r13b $r14b $r15b $r12bh $r13bh $r14bh $r15bh $r12d $r13d $r14d $r15d $r12w $r13w $r14w $r15w $r12wh and 3 more...>, implicit $rsp, implicit $ssp, implicit $rdi, implicit $rsi, implicit $rdx, implicit-def $rsp, implicit-def $ssp, implicit-def $eax
  ADJCALLSTACKUP64 0, 0, implicit-def dead $rsp, implicit-def dead $eflags, implicit-def dead $ssp, implicit $rsp, implicit $ssp
  %3:gr32 = COPY $eax
  RET 0

# End machine code for function __cxx_global_var_init.

# *** IR Dump Before Local Stack Slot Allocation ***:
# Machine code for function __cxx_global_var_init: IsSSA, TracksLiveness

bb.0 (%ir-block.0):
  ADJCALLSTACKDOWN64 0, 0, 0, implicit-def dead $rsp, implicit-def dead $eflags, implicit-def dead $ssp, implicit $rsp, implicit $ssp
  %0:gr64 = MOV32ri64 @_ZStL8__ioinit
  $rdi = COPY %0:gr64
  CALL64pcrel32 @_ZNSt8ios_base4InitC1Ev, <regmask $bh $bl $bp $bph $bpl $bx $ebp $ebx $hbp $hbx $rbp $rbx $r12 $r13 $r14 $r15 $r12b $r13b $r14b $r15b $r12bh $r13bh $r14bh $r15bh $r12d $r13d $r14d $r15d $r12w $r13w $r14w $r15w $r12wh and 3 more...>, implicit $rsp, implicit $ssp, implicit $rdi, implicit-def $rsp, implicit-def $ssp
  ADJCALLSTACKUP64 0, 0, implicit-def dead $rsp, implicit-def dead $eflags, implicit-def dead $ssp, implicit $rsp, implicit $ssp
  ADJCALLSTACKDOWN64 0, 0, 0, implicit-def dead $rsp, implicit-def dead $eflags, implicit-def dead $ssp, implicit $rsp, implicit $ssp
  %1:gr64 = MOV32ri64 @_ZNSt8ios_base4InitD1Ev
  %2:gr64 = MOV32ri64 @__dso_handle
  $rdi = COPY %1:gr64
  $rsi = COPY %0:gr64
  $rdx = COPY %2:gr64
  CALL64pcrel32 @__cxa_atexit, <regmask $bh $bl $bp $bph $bpl $bx $ebp $ebx $hbp $hbx $rbp $rbx $r12 $r13 $r14 $r15 $r12b $r13b $r14b $r15b $r12bh $r13bh $r14bh $r15bh $r12d $r13d $r14d $r15d $r12w $r13w $r14w $r15w $r12wh and 3 more...>, implicit $rsp, implicit $ssp, implicit $rdi, implicit $rsi, implicit $rdx, implicit-def $rsp, implicit-def $ssp, implicit-def $eax
  ADJCALLSTACKUP64 0, 0, implicit-def dead $rsp, implicit-def dead $eflags, implicit-def dead $ssp, implicit $rsp, implicit $ssp
  %3:gr32 = COPY $eax
  RET 0

# End machine code for function __cxx_global_var_init.

# *** IR Dump After Local Stack Slot Allocation ***:
# Machine code for function __cxx_global_var_init: IsSSA, TracksLiveness

bb.0 (%ir-block.0):
  ADJCALLSTACKDOWN64 0, 0, 0, implicit-def dead $rsp, implicit-def dead $eflags, implicit-def dead $ssp, implicit $rsp, implicit $ssp
  %0:gr64 = MOV32ri64 @_ZStL8__ioinit
  $rdi = COPY %0:gr64
  CALL64pcrel32 @_ZNSt8ios_base4InitC1Ev, <regmask $bh $bl $bp $bph $bpl $bx $ebp $ebx $hbp $hbx $rbp $rbx $r12 $r13 $r14 $r15 $r12b $r13b $r14b $r15b $r12bh $r13bh $r14bh $r15bh $r12d $r13d $r14d $r15d $r12w $r13w $r14w $r15w $r12wh and 3 more...>, implicit $rsp, implicit $ssp, implicit $rdi, implicit-def $rsp, implicit-def $ssp
  ADJCALLSTACKUP64 0, 0, implicit-def dead $rsp, implicit-def dead $eflags, implicit-def dead $ssp, implicit $rsp, implicit $ssp
  ADJCALLSTACKDOWN64 0, 0, 0, implicit-def dead $rsp, implicit-def dead $eflags, implicit-def dead $ssp, implicit $rsp, implicit $ssp
  %1:gr64 = MOV32ri64 @_ZNSt8ios_base4InitD1Ev
  %2:gr64 = MOV32ri64 @__dso_handle
  $rdi = COPY %1:gr64
  $rsi = COPY %0:gr64
  $rdx = COPY %2:gr64
  CALL64pcrel32 @__cxa_atexit, <regmask $bh $bl $bp $bph $bpl $bx $ebp $ebx $hbp $hbx $rbp $rbx $r12 $r13 $r14 $r15 $r12b $r13b $r14b $r15b $r12bh $r13bh $r14bh $r15bh $r12d $r13d $r14d $r15d $r12w $r13w $r14w $r15w $r12wh and 3 more...>, implicit $rsp, implicit $ssp, implicit $rdi, implicit $rsi, implicit $rdx, implicit-def $rsp, implicit-def $ssp, implicit-def $eax
  ADJCALLSTACKUP64 0, 0, implicit-def dead $rsp, implicit-def dead $eflags, implicit-def dead $ssp, implicit $rsp, implicit $ssp
  %3:gr32 = COPY $eax
  RET 0

# End machine code for function __cxx_global_var_init.

# *** IR Dump Before Remove dead machine instructions ***:
# Machine code for function __cxx_global_var_init: IsSSA, TracksLiveness

bb.0 (%ir-block.0):
  ADJCALLSTACKDOWN64 0, 0, 0, implicit-def dead $rsp, implicit-def dead $eflags, implicit-def dead $ssp, implicit $rsp, implicit $ssp
  %0:gr64 = MOV32ri64 @_ZStL8__ioinit
  $rdi = COPY %0:gr64
  CALL64pcrel32 @_ZNSt8ios_base4InitC1Ev, <regmask $bh $bl $bp $bph $bpl $bx $ebp $ebx $hbp $hbx $rbp $rbx $r12 $r13 $r14 $r15 $r12b $r13b $r14b $r15b $r12bh $r13bh $r14bh $r15bh $r12d $r13d $r14d $r15d $r12w $r13w $r14w $r15w $r12wh and 3 more...>, implicit $rsp, implicit $ssp, implicit $rdi, implicit-def $rsp, implicit-def $ssp
  ADJCALLSTACKUP64 0, 0, implicit-def dead $rsp, implicit-def dead $eflags, implicit-def dead $ssp, implicit $rsp, implicit $ssp
  ADJCALLSTACKDOWN64 0, 0, 0, implicit-def dead $rsp, implicit-def dead $eflags, implicit-def dead $ssp, implicit $rsp, implicit $ssp
  %1:gr64 = MOV32ri64 @_ZNSt8ios_base4InitD1Ev
  %2:gr64 = MOV32ri64 @__dso_handle
  $rdi = COPY %1:gr64
  $rsi = COPY %0:gr64
  $rdx = COPY %2:gr64
  CALL64pcrel32 @__cxa_atexit, <regmask $bh $bl $bp $bph $bpl $bx $ebp $ebx $hbp $hbx $rbp $rbx $r12 $r13 $r14 $r15 $r12b $r13b $r14b $r15b $r12bh $r13bh $r14bh $r15bh $r12d $r13d $r14d $r15d $r12w $r13w $r14w $r15w $r12wh and 3 more...>, implicit $rsp, implicit $ssp, implicit $rdi, implicit $rsi, implicit $rdx, implicit-def $rsp, implicit-def $ssp, implicit-def $eax
  ADJCALLSTACKUP64 0, 0, implicit-def dead $rsp, implicit-def dead $eflags, implicit-def dead $ssp, implicit $rsp, implicit $ssp
  %3:gr32 = COPY $eax
  RET 0

# End machine code for function __cxx_global_var_init.

# *** IR Dump After Remove dead machine instructions ***:
# Machine code for function __cxx_global_var_init: IsSSA, TracksLiveness

bb.0 (%ir-block.0):
  ADJCALLSTACKDOWN64 0, 0, 0, implicit-def dead $rsp, implicit-def dead $eflags, implicit-def dead $ssp, implicit $rsp, implicit $ssp
  %0:gr64 = MOV32ri64 @_ZStL8__ioinit
  $rdi = COPY %0:gr64
  CALL64pcrel32 @_ZNSt8ios_base4InitC1Ev, <regmask $bh $bl $bp $bph $bpl $bx $ebp $ebx $hbp $hbx $rbp $rbx $r12 $r13 $r14 $r15 $r12b $r13b $r14b $r15b $r12bh $r13bh $r14bh $r15bh $r12d $r13d $r14d $r15d $r12w $r13w $r14w $r15w $r12wh and 3 more...>, implicit $rsp, implicit $ssp, implicit $rdi, implicit-def $rsp, implicit-def $ssp
  ADJCALLSTACKUP64 0, 0, implicit-def dead $rsp, implicit-def dead $eflags, implicit-def dead $ssp, implicit $rsp, implicit $ssp
  ADJCALLSTACKDOWN64 0, 0, 0, implicit-def dead $rsp, implicit-def dead $eflags, implicit-def dead $ssp, implicit $rsp, implicit $ssp
  %1:gr64 = MOV32ri64 @_ZNSt8ios_base4InitD1Ev
  %2:gr64 = MOV32ri64 @__dso_handle
  $rdi = COPY %1:gr64
  $rsi = COPY %0:gr64
  $rdx = COPY %2:gr64
  CALL64pcrel32 @__cxa_atexit, <regmask $bh $bl $bp $bph $bpl $bx $ebp $ebx $hbp $hbx $rbp $rbx $r12 $r13 $r14 $r15 $r12b $r13b $r14b $r15b $r12bh $r13bh $r14bh $r15bh $r12d $r13d $r14d $r15d $r12w $r13w $r14w $r15w $r12wh and 3 more...>, implicit $rsp, implicit $ssp, implicit $rdi, implicit $rsi, implicit $rdx, implicit-def $rsp, implicit-def $ssp, implicit-def $eax
  ADJCALLSTACKUP64 0, 0, implicit-def dead $rsp, implicit-def dead $eflags, implicit-def dead $ssp, implicit $rsp, implicit $ssp
  RET 0

# End machine code for function __cxx_global_var_init.

# *** IR Dump Before Early If-Conversion ***:
# Machine code for function __cxx_global_var_init: IsSSA, TracksLiveness

bb.0 (%ir-block.0):
  ADJCALLSTACKDOWN64 0, 0, 0, implicit-def dead $rsp, implicit-def dead $eflags, implicit-def dead $ssp, implicit $rsp, implicit $ssp
  %0:gr64 = MOV32ri64 @_ZStL8__ioinit
  $rdi = COPY %0:gr64
  CALL64pcrel32 @_ZNSt8ios_base4InitC1Ev, <regmask $bh $bl $bp $bph $bpl $bx $ebp $ebx $hbp $hbx $rbp $rbx $r12 $r13 $r14 $r15 $r12b $r13b $r14b $r15b $r12bh $r13bh $r14bh $r15bh $r12d $r13d $r14d $r15d $r12w $r13w $r14w $r15w $r12wh and 3 more...>, implicit $rsp, implicit $ssp, implicit $rdi, implicit-def $rsp, implicit-def $ssp
  ADJCALLSTACKUP64 0, 0, implicit-def dead $rsp, implicit-def dead $eflags, implicit-def dead $ssp, implicit $rsp, implicit $ssp
  ADJCALLSTACKDOWN64 0, 0, 0, implicit-def dead $rsp, implicit-def dead $eflags, implicit-def dead $ssp, implicit $rsp, implicit $ssp
  %1:gr64 = MOV32ri64 @_ZNSt8ios_base4InitD1Ev
  %2:gr64 = MOV32ri64 @__dso_handle
  $rdi = COPY %1:gr64
  $rsi = COPY %0:gr64
  $rdx = COPY %2:gr64
  CALL64pcrel32 @__cxa_atexit, <regmask $bh $bl $bp $bph $bpl $bx $ebp $ebx $hbp $hbx $rbp $rbx $r12 $r13 $r14 $r15 $r12b $r13b $r14b $r15b $r12bh $r13bh $r14bh $r15bh $r12d $r13d $r14d $r15d $r12w $r13w $r14w $r15w $r12wh and 3 more...>, implicit $rsp, implicit $ssp, implicit $rdi, implicit $rsi, implicit $rdx, implicit-def $rsp, implicit-def $ssp, implicit-def $eax
  ADJCALLSTACKUP64 0, 0, implicit-def dead $rsp, implicit-def dead $eflags, implicit-def dead $ssp, implicit $rsp, implicit $ssp
  RET 0

# End machine code for function __cxx_global_var_init.

# *** IR Dump After Early If-Conversion ***:
# Machine code for function __cxx_global_var_init: IsSSA, TracksLiveness

bb.0 (%ir-block.0):
  ADJCALLSTACKDOWN64 0, 0, 0, implicit-def dead $rsp, implicit-def dead $eflags, implicit-def dead $ssp, implicit $rsp, implicit $ssp
  %0:gr64 = MOV32ri64 @_ZStL8__ioinit
  $rdi = COPY %0:gr64
  CALL64pcrel32 @_ZNSt8ios_base4InitC1Ev, <regmask $bh $bl $bp $bph $bpl $bx $ebp $ebx $hbp $hbx $rbp $rbx $r12 $r13 $r14 $r15 $r12b $r13b $r14b $r15b $r12bh $r13bh $r14bh $r15bh $r12d $r13d $r14d $r15d $r12w $r13w $r14w $r15w $r12wh and 3 more...>, implicit $rsp, implicit $ssp, implicit $rdi, implicit-def $rsp, implicit-def $ssp
  ADJCALLSTACKUP64 0, 0, implicit-def dead $rsp, implicit-def dead $eflags, implicit-def dead $ssp, implicit $rsp, implicit $ssp
  ADJCALLSTACKDOWN64 0, 0, 0, implicit-def dead $rsp, implicit-def dead $eflags, implicit-def dead $ssp, implicit $rsp, implicit $ssp
  %1:gr64 = MOV32ri64 @_ZNSt8ios_base4InitD1Ev
  %2:gr64 = MOV32ri64 @__dso_handle
  $rdi = COPY %1:gr64
  $rsi = COPY %0:gr64
  $rdx = COPY %2:gr64
  CALL64pcrel32 @__cxa_atexit, <regmask $bh $bl $bp $bph $bpl $bx $ebp $ebx $hbp $hbx $rbp $rbx $r12 $r13 $r14 $r15 $r12b $r13b $r14b $r15b $r12bh $r13bh $r14bh $r15bh $r12d $r13d $r14d $r15d $r12w $r13w $r14w $r15w $r12wh and 3 more...>, implicit $rsp, implicit $ssp, implicit $rdi, implicit $rsi, implicit $rdx, implicit-def $rsp, implicit-def $ssp, implicit-def $eax
  ADJCALLSTACKUP64 0, 0, implicit-def dead $rsp, implicit-def dead $eflags, implicit-def dead $ssp, implicit $rsp, implicit $ssp
  RET 0

# End machine code for function __cxx_global_var_init.

# *** IR Dump Before Machine InstCombiner ***:
# Machine code for function __cxx_global_var_init: IsSSA, TracksLiveness

bb.0 (%ir-block.0):
  ADJCALLSTACKDOWN64 0, 0, 0, implicit-def dead $rsp, implicit-def dead $eflags, implicit-def dead $ssp, implicit $rsp, implicit $ssp
  %0:gr64 = MOV32ri64 @_ZStL8__ioinit
  $rdi = COPY %0:gr64
  CALL64pcrel32 @_ZNSt8ios_base4InitC1Ev, <regmask $bh $bl $bp $bph $bpl $bx $ebp $ebx $hbp $hbx $rbp $rbx $r12 $r13 $r14 $r15 $r12b $r13b $r14b $r15b $r12bh $r13bh $r14bh $r15bh $r12d $r13d $r14d $r15d $r12w $r13w $r14w $r15w $r12wh and 3 more...>, implicit $rsp, implicit $ssp, implicit $rdi, implicit-def $rsp, implicit-def $ssp
  ADJCALLSTACKUP64 0, 0, implicit-def dead $rsp, implicit-def dead $eflags, implicit-def dead $ssp, implicit $rsp, implicit $ssp
  ADJCALLSTACKDOWN64 0, 0, 0, implicit-def dead $rsp, implicit-def dead $eflags, implicit-def dead $ssp, implicit $rsp, implicit $ssp
  %1:gr64 = MOV32ri64 @_ZNSt8ios_base4InitD1Ev
  %2:gr64 = MOV32ri64 @__dso_handle
  $rdi = COPY %1:gr64
  $rsi = COPY %0:gr64
  $rdx = COPY %2:gr64
  CALL64pcrel32 @__cxa_atexit, <regmask $bh $bl $bp $bph $bpl $bx $ebp $ebx $hbp $hbx $rbp $rbx $r12 $r13 $r14 $r15 $r12b $r13b $r14b $r15b $r12bh $r13bh $r14bh $r15bh $r12d $r13d $r14d $r15d $r12w $r13w $r14w $r15w $r12wh and 3 more...>, implicit $rsp, implicit $ssp, implicit $rdi, implicit $rsi, implicit $rdx, implicit-def $rsp, implicit-def $ssp, implicit-def $eax
  ADJCALLSTACKUP64 0, 0, implicit-def dead $rsp, implicit-def dead $eflags, implicit-def dead $ssp, implicit $rsp, implicit $ssp
  RET 0

# End machine code for function __cxx_global_var_init.

# *** IR Dump After Machine InstCombiner ***:
# Machine code for function __cxx_global_var_init: IsSSA, TracksLiveness

bb.0 (%ir-block.0):
  ADJCALLSTACKDOWN64 0, 0, 0, implicit-def dead $rsp, implicit-def dead $eflags, implicit-def dead $ssp, implicit $rsp, implicit $ssp
  %0:gr64 = MOV32ri64 @_ZStL8__ioinit
  $rdi = COPY %0:gr64
  CALL64pcrel32 @_ZNSt8ios_base4InitC1Ev, <regmask $bh $bl $bp $bph $bpl $bx $ebp $ebx $hbp $hbx $rbp $rbx $r12 $r13 $r14 $r15 $r12b $r13b $r14b $r15b $r12bh $r13bh $r14bh $r15bh $r12d $r13d $r14d $r15d $r12w $r13w $r14w $r15w $r12wh and 3 more...>, implicit $rsp, implicit $ssp, implicit $rdi, implicit-def $rsp, implicit-def $ssp
  ADJCALLSTACKUP64 0, 0, implicit-def dead $rsp, implicit-def dead $eflags, implicit-def dead $ssp, implicit $rsp, implicit $ssp
  ADJCALLSTACKDOWN64 0, 0, 0, implicit-def dead $rsp, implicit-def dead $eflags, implicit-def dead $ssp, implicit $rsp, implicit $ssp
  %1:gr64 = MOV32ri64 @_ZNSt8ios_base4InitD1Ev
  %2:gr64 = MOV32ri64 @__dso_handle
  $rdi = COPY %1:gr64
  $rsi = COPY %0:gr64
  $rdx = COPY %2:gr64
  CALL64pcrel32 @__cxa_atexit, <regmask $bh $bl $bp $bph $bpl $bx $ebp $ebx $hbp $hbx $rbp $rbx $r12 $r13 $r14 $r15 $r12b $r13b $r14b $r15b $r12bh $r13bh $r14bh $r15bh $r12d $r13d $r14d $r15d $r12w $r13w $r14w $r15w $r12wh and 3 more...>, implicit $rsp, implicit $ssp, implicit $rdi, implicit $rsi, implicit $rdx, implicit-def $rsp, implicit-def $ssp, implicit-def $eax
  ADJCALLSTACKUP64 0, 0, implicit-def dead $rsp, implicit-def dead $eflags, implicit-def dead $ssp, implicit $rsp, implicit $ssp
  RET 0

# End machine code for function __cxx_global_var_init.

# *** IR Dump Before X86 cmov Conversion ***:
# Machine code for function __cxx_global_var_init: IsSSA, TracksLiveness

bb.0 (%ir-block.0):
  ADJCALLSTACKDOWN64 0, 0, 0, implicit-def dead $rsp, implicit-def dead $eflags, implicit-def dead $ssp, implicit $rsp, implicit $ssp
  %0:gr64 = MOV32ri64 @_ZStL8__ioinit
  $rdi = COPY %0:gr64
  CALL64pcrel32 @_ZNSt8ios_base4InitC1Ev, <regmask $bh $bl $bp $bph $bpl $bx $ebp $ebx $hbp $hbx $rbp $rbx $r12 $r13 $r14 $r15 $r12b $r13b $r14b $r15b $r12bh $r13bh $r14bh $r15bh $r12d $r13d $r14d $r15d $r12w $r13w $r14w $r15w $r12wh and 3 more...>, implicit $rsp, implicit $ssp, implicit $rdi, implicit-def $rsp, implicit-def $ssp
  ADJCALLSTACKUP64 0, 0, implicit-def dead $rsp, implicit-def dead $eflags, implicit-def dead $ssp, implicit $rsp, implicit $ssp
  ADJCALLSTACKDOWN64 0, 0, 0, implicit-def dead $rsp, implicit-def dead $eflags, implicit-def dead $ssp, implicit $rsp, implicit $ssp
  %1:gr64 = MOV32ri64 @_ZNSt8ios_base4InitD1Ev
  %2:gr64 = MOV32ri64 @__dso_handle
  $rdi = COPY %1:gr64
  $rsi = COPY %0:gr64
  $rdx = COPY %2:gr64
  CALL64pcrel32 @__cxa_atexit, <regmask $bh $bl $bp $bph $bpl $bx $ebp $ebx $hbp $hbx $rbp $rbx $r12 $r13 $r14 $r15 $r12b $r13b $r14b $r15b $r12bh $r13bh $r14bh $r15bh $r12d $r13d $r14d $r15d $r12w $r13w $r14w $r15w $r12wh and 3 more...>, implicit $rsp, implicit $ssp, implicit $rdi, implicit $rsi, implicit $rdx, implicit-def $rsp, implicit-def $ssp, implicit-def $eax
  ADJCALLSTACKUP64 0, 0, implicit-def dead $rsp, implicit-def dead $eflags, implicit-def dead $ssp, implicit $rsp, implicit $ssp
  RET 0

# End machine code for function __cxx_global_var_init.

# *** IR Dump After X86 cmov Conversion ***:
# Machine code for function __cxx_global_var_init: IsSSA, TracksLiveness

bb.0 (%ir-block.0):
  ADJCALLSTACKDOWN64 0, 0, 0, implicit-def dead $rsp, implicit-def dead $eflags, implicit-def dead $ssp, implicit $rsp, implicit $ssp
  %0:gr64 = MOV32ri64 @_ZStL8__ioinit
  $rdi = COPY %0:gr64
  CALL64pcrel32 @_ZNSt8ios_base4InitC1Ev, <regmask $bh $bl $bp $bph $bpl $bx $ebp $ebx $hbp $hbx $rbp $rbx $r12 $r13 $r14 $r15 $r12b $r13b $r14b $r15b $r12bh $r13bh $r14bh $r15bh $r12d $r13d $r14d $r15d $r12w $r13w $r14w $r15w $r12wh and 3 more...>, implicit $rsp, implicit $ssp, implicit $rdi, implicit-def $rsp, implicit-def $ssp
  ADJCALLSTACKUP64 0, 0, implicit-def dead $rsp, implicit-def dead $eflags, implicit-def dead $ssp, implicit $rsp, implicit $ssp
  ADJCALLSTACKDOWN64 0, 0, 0, implicit-def dead $rsp, implicit-def dead $eflags, implicit-def dead $ssp, implicit $rsp, implicit $ssp
  %1:gr64 = MOV32ri64 @_ZNSt8ios_base4InitD1Ev
  %2:gr64 = MOV32ri64 @__dso_handle
  $rdi = COPY %1:gr64
  $rsi = COPY %0:gr64
  $rdx = COPY %2:gr64
  CALL64pcrel32 @__cxa_atexit, <regmask $bh $bl $bp $bph $bpl $bx $ebp $ebx $hbp $hbx $rbp $rbx $r12 $r13 $r14 $r15 $r12b $r13b $r14b $r15b $r12bh $r13bh $r14bh $r15bh $r12d $r13d $r14d $r15d $r12w $r13w $r14w $r15w $r12wh and 3 more...>, implicit $rsp, implicit $ssp, implicit $rdi, implicit $rsi, implicit $rdx, implicit-def $rsp, implicit-def $ssp, implicit-def $eax
  ADJCALLSTACKUP64 0, 0, implicit-def dead $rsp, implicit-def dead $eflags, implicit-def dead $ssp, implicit $rsp, implicit $ssp
  RET 0

# End machine code for function __cxx_global_var_init.

# *** IR Dump Before Early Machine Loop Invariant Code Motion ***:
# Machine code for function __cxx_global_var_init: IsSSA, TracksLiveness

bb.0 (%ir-block.0):
  ADJCALLSTACKDOWN64 0, 0, 0, implicit-def dead $rsp, implicit-def dead $eflags, implicit-def dead $ssp, implicit $rsp, implicit $ssp
  %0:gr64 = MOV32ri64 @_ZStL8__ioinit
  $rdi = COPY %0:gr64
  CALL64pcrel32 @_ZNSt8ios_base4InitC1Ev, <regmask $bh $bl $bp $bph $bpl $bx $ebp $ebx $hbp $hbx $rbp $rbx $r12 $r13 $r14 $r15 $r12b $r13b $r14b $r15b $r12bh $r13bh $r14bh $r15bh $r12d $r13d $r14d $r15d $r12w $r13w $r14w $r15w $r12wh and 3 more...>, implicit $rsp, implicit $ssp, implicit $rdi, implicit-def $rsp, implicit-def $ssp
  ADJCALLSTACKUP64 0, 0, implicit-def dead $rsp, implicit-def dead $eflags, implicit-def dead $ssp, implicit $rsp, implicit $ssp
  ADJCALLSTACKDOWN64 0, 0, 0, implicit-def dead $rsp, implicit-def dead $eflags, implicit-def dead $ssp, implicit $rsp, implicit $ssp
  %1:gr64 = MOV32ri64 @_ZNSt8ios_base4InitD1Ev
  %2:gr64 = MOV32ri64 @__dso_handle
  $rdi = COPY %1:gr64
  $rsi = COPY %0:gr64
  $rdx = COPY %2:gr64
  CALL64pcrel32 @__cxa_atexit, <regmask $bh $bl $bp $bph $bpl $bx $ebp $ebx $hbp $hbx $rbp $rbx $r12 $r13 $r14 $r15 $r12b $r13b $r14b $r15b $r12bh $r13bh $r14bh $r15bh $r12d $r13d $r14d $r15d $r12w $r13w $r14w $r15w $r12wh and 3 more...>, implicit $rsp, implicit $ssp, implicit $rdi, implicit $rsi, implicit $rdx, implicit-def $rsp, implicit-def $ssp, implicit-def $eax
  ADJCALLSTACKUP64 0, 0, implicit-def dead $rsp, implicit-def dead $eflags, implicit-def dead $ssp, implicit $rsp, implicit $ssp
  RET 0

# End machine code for function __cxx_global_var_init.

# *** IR Dump After Early Machine Loop Invariant Code Motion ***:
# Machine code for function __cxx_global_var_init: IsSSA, TracksLiveness

bb.0 (%ir-block.0):
  ADJCALLSTACKDOWN64 0, 0, 0, implicit-def dead $rsp, implicit-def dead $eflags, implicit-def dead $ssp, implicit $rsp, implicit $ssp
  %0:gr64 = MOV32ri64 @_ZStL8__ioinit
  $rdi = COPY %0:gr64
  CALL64pcrel32 @_ZNSt8ios_base4InitC1Ev, <regmask $bh $bl $bp $bph $bpl $bx $ebp $ebx $hbp $hbx $rbp $rbx $r12 $r13 $r14 $r15 $r12b $r13b $r14b $r15b $r12bh $r13bh $r14bh $r15bh $r12d $r13d $r14d $r15d $r12w $r13w $r14w $r15w $r12wh and 3 more...>, implicit $rsp, implicit $ssp, implicit $rdi, implicit-def $rsp, implicit-def $ssp
  ADJCALLSTACKUP64 0, 0, implicit-def dead $rsp, implicit-def dead $eflags, implicit-def dead $ssp, implicit $rsp, implicit $ssp
  ADJCALLSTACKDOWN64 0, 0, 0, implicit-def dead $rsp, implicit-def dead $eflags, implicit-def dead $ssp, implicit $rsp, implicit $ssp
  %1:gr64 = MOV32ri64 @_ZNSt8ios_base4InitD1Ev
  %2:gr64 = MOV32ri64 @__dso_handle
  $rdi = COPY %1:gr64
  $rsi = COPY %0:gr64
  $rdx = COPY %2:gr64
  CALL64pcrel32 @__cxa_atexit, <regmask $bh $bl $bp $bph $bpl $bx $ebp $ebx $hbp $hbx $rbp $rbx $r12 $r13 $r14 $r15 $r12b $r13b $r14b $r15b $r12bh $r13bh $r14bh $r15bh $r12d $r13d $r14d $r15d $r12w $r13w $r14w $r15w $r12wh and 3 more...>, implicit $rsp, implicit $ssp, implicit $rdi, implicit $rsi, implicit $rdx, implicit-def $rsp, implicit-def $ssp, implicit-def $eax
  ADJCALLSTACKUP64 0, 0, implicit-def dead $rsp, implicit-def dead $eflags, implicit-def dead $ssp, implicit $rsp, implicit $ssp
  RET 0

# End machine code for function __cxx_global_var_init.

# *** IR Dump Before Machine Common Subexpression Elimination ***:
# Machine code for function __cxx_global_var_init: IsSSA, TracksLiveness

bb.0 (%ir-block.0):
  ADJCALLSTACKDOWN64 0, 0, 0, implicit-def dead $rsp, implicit-def dead $eflags, implicit-def dead $ssp, implicit $rsp, implicit $ssp
  %0:gr64 = MOV32ri64 @_ZStL8__ioinit
  $rdi = COPY %0:gr64
  CALL64pcrel32 @_ZNSt8ios_base4InitC1Ev, <regmask $bh $bl $bp $bph $bpl $bx $ebp $ebx $hbp $hbx $rbp $rbx $r12 $r13 $r14 $r15 $r12b $r13b $r14b $r15b $r12bh $r13bh $r14bh $r15bh $r12d $r13d $r14d $r15d $r12w $r13w $r14w $r15w $r12wh and 3 more...>, implicit $rsp, implicit $ssp, implicit $rdi, implicit-def $rsp, implicit-def $ssp
  ADJCALLSTACKUP64 0, 0, implicit-def dead $rsp, implicit-def dead $eflags, implicit-def dead $ssp, implicit $rsp, implicit $ssp
  ADJCALLSTACKDOWN64 0, 0, 0, implicit-def dead $rsp, implicit-def dead $eflags, implicit-def dead $ssp, implicit $rsp, implicit $ssp
  %1:gr64 = MOV32ri64 @_ZNSt8ios_base4InitD1Ev
  %2:gr64 = MOV32ri64 @__dso_handle
  $rdi = COPY %1:gr64
  $rsi = COPY %0:gr64
  $rdx = COPY %2:gr64
  CALL64pcrel32 @__cxa_atexit, <regmask $bh $bl $bp $bph $bpl $bx $ebp $ebx $hbp $hbx $rbp $rbx $r12 $r13 $r14 $r15 $r12b $r13b $r14b $r15b $r12bh $r13bh $r14bh $r15bh $r12d $r13d $r14d $r15d $r12w $r13w $r14w $r15w $r12wh and 3 more...>, implicit $rsp, implicit $ssp, implicit $rdi, implicit $rsi, implicit $rdx, implicit-def $rsp, implicit-def $ssp, implicit-def $eax
  ADJCALLSTACKUP64 0, 0, implicit-def dead $rsp, implicit-def dead $eflags, implicit-def dead $ssp, implicit $rsp, implicit $ssp
  RET 0

# End machine code for function __cxx_global_var_init.

# *** IR Dump After Machine Common Subexpression Elimination ***:
# Machine code for function __cxx_global_var_init: IsSSA, TracksLiveness

bb.0 (%ir-block.0):
  ADJCALLSTACKDOWN64 0, 0, 0, implicit-def dead $rsp, implicit-def dead $eflags, implicit-def dead $ssp, implicit $rsp, implicit $ssp
  %0:gr64 = MOV32ri64 @_ZStL8__ioinit
  $rdi = COPY %0:gr64
  CALL64pcrel32 @_ZNSt8ios_base4InitC1Ev, <regmask $bh $bl $bp $bph $bpl $bx $ebp $ebx $hbp $hbx $rbp $rbx $r12 $r13 $r14 $r15 $r12b $r13b $r14b $r15b $r12bh $r13bh $r14bh $r15bh $r12d $r13d $r14d $r15d $r12w $r13w $r14w $r15w $r12wh and 3 more...>, implicit $rsp, implicit $ssp, implicit $rdi, implicit-def $rsp, implicit-def $ssp
  ADJCALLSTACKUP64 0, 0, implicit-def dead $rsp, implicit-def dead $eflags, implicit-def dead $ssp, implicit $rsp, implicit $ssp
  ADJCALLSTACKDOWN64 0, 0, 0, implicit-def dead $rsp, implicit-def dead $eflags, implicit-def dead $ssp, implicit $rsp, implicit $ssp
  %1:gr64 = MOV32ri64 @_ZNSt8ios_base4InitD1Ev
  %2:gr64 = MOV32ri64 @__dso_handle
  $rdi = COPY %1:gr64
  $rsi = COPY %0:gr64
  $rdx = COPY %2:gr64
  CALL64pcrel32 @__cxa_atexit, <regmask $bh $bl $bp $bph $bpl $bx $ebp $ebx $hbp $hbx $rbp $rbx $r12 $r13 $r14 $r15 $r12b $r13b $r14b $r15b $r12bh $r13bh $r14bh $r15bh $r12d $r13d $r14d $r15d $r12w $r13w $r14w $r15w $r12wh and 3 more...>, implicit $rsp, implicit $ssp, implicit $rdi, implicit $rsi, implicit $rdx, implicit-def $rsp, implicit-def $ssp, implicit-def $eax
  ADJCALLSTACKUP64 0, 0, implicit-def dead $rsp, implicit-def dead $eflags, implicit-def dead $ssp, implicit $rsp, implicit $ssp
  RET 0

# End machine code for function __cxx_global_var_init.

# *** IR Dump Before Machine code sinking ***:
# Machine code for function __cxx_global_var_init: IsSSA, TracksLiveness

bb.0 (%ir-block.0):
  ADJCALLSTACKDOWN64 0, 0, 0, implicit-def dead $rsp, implicit-def dead $eflags, implicit-def dead $ssp, implicit $rsp, implicit $ssp
  %0:gr64 = MOV32ri64 @_ZStL8__ioinit
  $rdi = COPY %0:gr64
  CALL64pcrel32 @_ZNSt8ios_base4InitC1Ev, <regmask $bh $bl $bp $bph $bpl $bx $ebp $ebx $hbp $hbx $rbp $rbx $r12 $r13 $r14 $r15 $r12b $r13b $r14b $r15b $r12bh $r13bh $r14bh $r15bh $r12d $r13d $r14d $r15d $r12w $r13w $r14w $r15w $r12wh and 3 more...>, implicit $rsp, implicit $ssp, implicit $rdi, implicit-def $rsp, implicit-def $ssp
  ADJCALLSTACKUP64 0, 0, implicit-def dead $rsp, implicit-def dead $eflags, implicit-def dead $ssp, implicit $rsp, implicit $ssp
  ADJCALLSTACKDOWN64 0, 0, 0, implicit-def dead $rsp, implicit-def dead $eflags, implicit-def dead $ssp, implicit $rsp, implicit $ssp
  %1:gr64 = MOV32ri64 @_ZNSt8ios_base4InitD1Ev
  %2:gr64 = MOV32ri64 @__dso_handle
  $rdi = COPY %1:gr64
  $rsi = COPY %0:gr64
  $rdx = COPY %2:gr64
  CALL64pcrel32 @__cxa_atexit, <regmask $bh $bl $bp $bph $bpl $bx $ebp $ebx $hbp $hbx $rbp $rbx $r12 $r13 $r14 $r15 $r12b $r13b $r14b $r15b $r12bh $r13bh $r14bh $r15bh $r12d $r13d $r14d $r15d $r12w $r13w $r14w $r15w $r12wh and 3 more...>, implicit $rsp, implicit $ssp, implicit $rdi, implicit $rsi, implicit $rdx, implicit-def $rsp, implicit-def $ssp, implicit-def $eax
  ADJCALLSTACKUP64 0, 0, implicit-def dead $rsp, implicit-def dead $eflags, implicit-def dead $ssp, implicit $rsp, implicit $ssp
  RET 0

# End machine code for function __cxx_global_var_init.

# *** IR Dump After Machine code sinking ***:
# Machine code for function __cxx_global_var_init: IsSSA, TracksLiveness

bb.0 (%ir-block.0):
  ADJCALLSTACKDOWN64 0, 0, 0, implicit-def dead $rsp, implicit-def dead $eflags, implicit-def dead $ssp, implicit $rsp, implicit $ssp
  %0:gr64 = MOV32ri64 @_ZStL8__ioinit
  $rdi = COPY %0:gr64
  CALL64pcrel32 @_ZNSt8ios_base4InitC1Ev, <regmask $bh $bl $bp $bph $bpl $bx $ebp $ebx $hbp $hbx $rbp $rbx $r12 $r13 $r14 $r15 $r12b $r13b $r14b $r15b $r12bh $r13bh $r14bh $r15bh $r12d $r13d $r14d $r15d $r12w $r13w $r14w $r15w $r12wh and 3 more...>, implicit $rsp, implicit $ssp, implicit $rdi, implicit-def $rsp, implicit-def $ssp
  ADJCALLSTACKUP64 0, 0, implicit-def dead $rsp, implicit-def dead $eflags, implicit-def dead $ssp, implicit $rsp, implicit $ssp
  ADJCALLSTACKDOWN64 0, 0, 0, implicit-def dead $rsp, implicit-def dead $eflags, implicit-def dead $ssp, implicit $rsp, implicit $ssp
  %1:gr64 = MOV32ri64 @_ZNSt8ios_base4InitD1Ev
  %2:gr64 = MOV32ri64 @__dso_handle
  $rdi = COPY %1:gr64
  $rsi = COPY %0:gr64
  $rdx = COPY %2:gr64
  CALL64pcrel32 @__cxa_atexit, <regmask $bh $bl $bp $bph $bpl $bx $ebp $ebx $hbp $hbx $rbp $rbx $r12 $r13 $r14 $r15 $r12b $r13b $r14b $r15b $r12bh $r13bh $r14bh $r15bh $r12d $r13d $r14d $r15d $r12w $r13w $r14w $r15w $r12wh and 3 more...>, implicit $rsp, implicit $ssp, implicit $rdi, implicit $rsi, implicit $rdx, implicit-def $rsp, implicit-def $ssp, implicit-def $eax
  ADJCALLSTACKUP64 0, 0, implicit-def dead $rsp, implicit-def dead $eflags, implicit-def dead $ssp, implicit $rsp, implicit $ssp
  RET 0

# End machine code for function __cxx_global_var_init.

# *** IR Dump Before Peephole Optimizations ***:
# Machine code for function __cxx_global_var_init: IsSSA, TracksLiveness

bb.0 (%ir-block.0):
  ADJCALLSTACKDOWN64 0, 0, 0, implicit-def dead $rsp, implicit-def dead $eflags, implicit-def dead $ssp, implicit $rsp, implicit $ssp
  %0:gr64 = MOV32ri64 @_ZStL8__ioinit
  $rdi = COPY %0:gr64
  CALL64pcrel32 @_ZNSt8ios_base4InitC1Ev, <regmask $bh $bl $bp $bph $bpl $bx $ebp $ebx $hbp $hbx $rbp $rbx $r12 $r13 $r14 $r15 $r12b $r13b $r14b $r15b $r12bh $r13bh $r14bh $r15bh $r12d $r13d $r14d $r15d $r12w $r13w $r14w $r15w $r12wh and 3 more...>, implicit $rsp, implicit $ssp, implicit $rdi, implicit-def $rsp, implicit-def $ssp
  ADJCALLSTACKUP64 0, 0, implicit-def dead $rsp, implicit-def dead $eflags, implicit-def dead $ssp, implicit $rsp, implicit $ssp
  ADJCALLSTACKDOWN64 0, 0, 0, implicit-def dead $rsp, implicit-def dead $eflags, implicit-def dead $ssp, implicit $rsp, implicit $ssp
  %1:gr64 = MOV32ri64 @_ZNSt8ios_base4InitD1Ev
  %2:gr64 = MOV32ri64 @__dso_handle
  $rdi = COPY %1:gr64
  $rsi = COPY %0:gr64
  $rdx = COPY %2:gr64
  CALL64pcrel32 @__cxa_atexit, <regmask $bh $bl $bp $bph $bpl $bx $ebp $ebx $hbp $hbx $rbp $rbx $r12 $r13 $r14 $r15 $r12b $r13b $r14b $r15b $r12bh $r13bh $r14bh $r15bh $r12d $r13d $r14d $r15d $r12w $r13w $r14w $r15w $r12wh and 3 more...>, implicit $rsp, implicit $ssp, implicit $rdi, implicit $rsi, implicit $rdx, implicit-def $rsp, implicit-def $ssp, implicit-def $eax
  ADJCALLSTACKUP64 0, 0, implicit-def dead $rsp, implicit-def dead $eflags, implicit-def dead $ssp, implicit $rsp, implicit $ssp
  RET 0

# End machine code for function __cxx_global_var_init.

# *** IR Dump After Peephole Optimizations ***:
# Machine code for function __cxx_global_var_init: IsSSA, TracksLiveness

bb.0 (%ir-block.0):
  ADJCALLSTACKDOWN64 0, 0, 0, implicit-def dead $rsp, implicit-def dead $eflags, implicit-def dead $ssp, implicit $rsp, implicit $ssp
  %0:gr64 = MOV32ri64 @_ZStL8__ioinit
  $rdi = COPY %0:gr64
  CALL64pcrel32 @_ZNSt8ios_base4InitC1Ev, <regmask $bh $bl $bp $bph $bpl $bx $ebp $ebx $hbp $hbx $rbp $rbx $r12 $r13 $r14 $r15 $r12b $r13b $r14b $r15b $r12bh $r13bh $r14bh $r15bh $r12d $r13d $r14d $r15d $r12w $r13w $r14w $r15w $r12wh and 3 more...>, implicit $rsp, implicit $ssp, implicit $rdi, implicit-def $rsp, implicit-def $ssp
  ADJCALLSTACKUP64 0, 0, implicit-def dead $rsp, implicit-def dead $eflags, implicit-def dead $ssp, implicit $rsp, implicit $ssp
  ADJCALLSTACKDOWN64 0, 0, 0, implicit-def dead $rsp, implicit-def dead $eflags, implicit-def dead $ssp, implicit $rsp, implicit $ssp
  %1:gr64 = MOV32ri64 @_ZNSt8ios_base4InitD1Ev
  %2:gr64 = MOV32ri64 @__dso_handle
  $rdi = COPY %1:gr64
  $rsi = COPY %0:gr64
  $rdx = COPY %2:gr64
  CALL64pcrel32 @__cxa_atexit, <regmask $bh $bl $bp $bph $bpl $bx $ebp $ebx $hbp $hbx $rbp $rbx $r12 $r13 $r14 $r15 $r12b $r13b $r14b $r15b $r12bh $r13bh $r14bh $r15bh $r12d $r13d $r14d $r15d $r12w $r13w $r14w $r15w $r12wh and 3 more...>, implicit $rsp, implicit $ssp, implicit $rdi, implicit $rsi, implicit $rdx, implicit-def $rsp, implicit-def $ssp, implicit-def $eax
  ADJCALLSTACKUP64 0, 0, implicit-def dead $rsp, implicit-def dead $eflags, implicit-def dead $ssp, implicit $rsp, implicit $ssp
  RET 0

# End machine code for function __cxx_global_var_init.

# *** IR Dump Before Remove dead machine instructions ***:
# Machine code for function __cxx_global_var_init: IsSSA, TracksLiveness

bb.0 (%ir-block.0):
  ADJCALLSTACKDOWN64 0, 0, 0, implicit-def dead $rsp, implicit-def dead $eflags, implicit-def dead $ssp, implicit $rsp, implicit $ssp
  %0:gr64 = MOV32ri64 @_ZStL8__ioinit
  $rdi = COPY %0:gr64
  CALL64pcrel32 @_ZNSt8ios_base4InitC1Ev, <regmask $bh $bl $bp $bph $bpl $bx $ebp $ebx $hbp $hbx $rbp $rbx $r12 $r13 $r14 $r15 $r12b $r13b $r14b $r15b $r12bh $r13bh $r14bh $r15bh $r12d $r13d $r14d $r15d $r12w $r13w $r14w $r15w $r12wh and 3 more...>, implicit $rsp, implicit $ssp, implicit $rdi, implicit-def $rsp, implicit-def $ssp
  ADJCALLSTACKUP64 0, 0, implicit-def dead $rsp, implicit-def dead $eflags, implicit-def dead $ssp, implicit $rsp, implicit $ssp
  ADJCALLSTACKDOWN64 0, 0, 0, implicit-def dead $rsp, implicit-def dead $eflags, implicit-def dead $ssp, implicit $rsp, implicit $ssp
  %1:gr64 = MOV32ri64 @_ZNSt8ios_base4InitD1Ev
  %2:gr64 = MOV32ri64 @__dso_handle
  $rdi = COPY %1:gr64
  $rsi = COPY %0:gr64
  $rdx = COPY %2:gr64
  CALL64pcrel32 @__cxa_atexit, <regmask $bh $bl $bp $bph $bpl $bx $ebp $ebx $hbp $hbx $rbp $rbx $r12 $r13 $r14 $r15 $r12b $r13b $r14b $r15b $r12bh $r13bh $r14bh $r15bh $r12d $r13d $r14d $r15d $r12w $r13w $r14w $r15w $r12wh and 3 more...>, implicit $rsp, implicit $ssp, implicit $rdi, implicit $rsi, implicit $rdx, implicit-def $rsp, implicit-def $ssp, implicit-def $eax
  ADJCALLSTACKUP64 0, 0, implicit-def dead $rsp, implicit-def dead $eflags, implicit-def dead $ssp, implicit $rsp, implicit $ssp
  RET 0

# End machine code for function __cxx_global_var_init.

# *** IR Dump After Remove dead machine instructions ***:
# Machine code for function __cxx_global_var_init: IsSSA, TracksLiveness

bb.0 (%ir-block.0):
  ADJCALLSTACKDOWN64 0, 0, 0, implicit-def dead $rsp, implicit-def dead $eflags, implicit-def dead $ssp, implicit $rsp, implicit $ssp
  %0:gr64 = MOV32ri64 @_ZStL8__ioinit
  $rdi = COPY %0:gr64
  CALL64pcrel32 @_ZNSt8ios_base4InitC1Ev, <regmask $bh $bl $bp $bph $bpl $bx $ebp $ebx $hbp $hbx $rbp $rbx $r12 $r13 $r14 $r15 $r12b $r13b $r14b $r15b $r12bh $r13bh $r14bh $r15bh $r12d $r13d $r14d $r15d $r12w $r13w $r14w $r15w $r12wh and 3 more...>, implicit $rsp, implicit $ssp, implicit $rdi, implicit-def $rsp, implicit-def $ssp
  ADJCALLSTACKUP64 0, 0, implicit-def dead $rsp, implicit-def dead $eflags, implicit-def dead $ssp, implicit $rsp, implicit $ssp
  ADJCALLSTACKDOWN64 0, 0, 0, implicit-def dead $rsp, implicit-def dead $eflags, implicit-def dead $ssp, implicit $rsp, implicit $ssp
  %1:gr64 = MOV32ri64 @_ZNSt8ios_base4InitD1Ev
  %2:gr64 = MOV32ri64 @__dso_handle
  $rdi = COPY %1:gr64
  $rsi = COPY %0:gr64
  $rdx = COPY %2:gr64
  CALL64pcrel32 @__cxa_atexit, <regmask $bh $bl $bp $bph $bpl $bx $ebp $ebx $hbp $hbx $rbp $rbx $r12 $r13 $r14 $r15 $r12b $r13b $r14b $r15b $r12bh $r13bh $r14bh $r15bh $r12d $r13d $r14d $r15d $r12w $r13w $r14w $r15w $r12wh and 3 more...>, implicit $rsp, implicit $ssp, implicit $rdi, implicit $rsi, implicit $rdx, implicit-def $rsp, implicit-def $ssp, implicit-def $eax
  ADJCALLSTACKUP64 0, 0, implicit-def dead $rsp, implicit-def dead $eflags, implicit-def dead $ssp, implicit $rsp, implicit $ssp
  RET 0

# End machine code for function __cxx_global_var_init.

# *** IR Dump Before Live Range Shrink ***:
# Machine code for function __cxx_global_var_init: IsSSA, TracksLiveness

bb.0 (%ir-block.0):
  ADJCALLSTACKDOWN64 0, 0, 0, implicit-def dead $rsp, implicit-def dead $eflags, implicit-def dead $ssp, implicit $rsp, implicit $ssp
  %0:gr64 = MOV32ri64 @_ZStL8__ioinit
  $rdi = COPY %0:gr64
  CALL64pcrel32 @_ZNSt8ios_base4InitC1Ev, <regmask $bh $bl $bp $bph $bpl $bx $ebp $ebx $hbp $hbx $rbp $rbx $r12 $r13 $r14 $r15 $r12b $r13b $r14b $r15b $r12bh $r13bh $r14bh $r15bh $r12d $r13d $r14d $r15d $r12w $r13w $r14w $r15w $r12wh and 3 more...>, implicit $rsp, implicit $ssp, implicit $rdi, implicit-def $rsp, implicit-def $ssp
  ADJCALLSTACKUP64 0, 0, implicit-def dead $rsp, implicit-def dead $eflags, implicit-def dead $ssp, implicit $rsp, implicit $ssp
  ADJCALLSTACKDOWN64 0, 0, 0, implicit-def dead $rsp, implicit-def dead $eflags, implicit-def dead $ssp, implicit $rsp, implicit $ssp
  %1:gr64 = MOV32ri64 @_ZNSt8ios_base4InitD1Ev
  %2:gr64 = MOV32ri64 @__dso_handle
  $rdi = COPY %1:gr64
  $rsi = COPY %0:gr64
  $rdx = COPY %2:gr64
  CALL64pcrel32 @__cxa_atexit, <regmask $bh $bl $bp $bph $bpl $bx $ebp $ebx $hbp $hbx $rbp $rbx $r12 $r13 $r14 $r15 $r12b $r13b $r14b $r15b $r12bh $r13bh $r14bh $r15bh $r12d $r13d $r14d $r15d $r12w $r13w $r14w $r15w $r12wh and 3 more...>, implicit $rsp, implicit $ssp, implicit $rdi, implicit $rsi, implicit $rdx, implicit-def $rsp, implicit-def $ssp, implicit-def $eax
  ADJCALLSTACKUP64 0, 0, implicit-def dead $rsp, implicit-def dead $eflags, implicit-def dead $ssp, implicit $rsp, implicit $ssp
  RET 0

# End machine code for function __cxx_global_var_init.

# *** IR Dump After Live Range Shrink ***:
# Machine code for function __cxx_global_var_init: IsSSA, TracksLiveness

bb.0 (%ir-block.0):
  ADJCALLSTACKDOWN64 0, 0, 0, implicit-def dead $rsp, implicit-def dead $eflags, implicit-def dead $ssp, implicit $rsp, implicit $ssp
  %0:gr64 = MOV32ri64 @_ZStL8__ioinit
  $rdi = COPY %0:gr64
  CALL64pcrel32 @_ZNSt8ios_base4InitC1Ev, <regmask $bh $bl $bp $bph $bpl $bx $ebp $ebx $hbp $hbx $rbp $rbx $r12 $r13 $r14 $r15 $r12b $r13b $r14b $r15b $r12bh $r13bh $r14bh $r15bh $r12d $r13d $r14d $r15d $r12w $r13w $r14w $r15w $r12wh and 3 more...>, implicit $rsp, implicit $ssp, implicit $rdi, implicit-def $rsp, implicit-def $ssp
  ADJCALLSTACKUP64 0, 0, implicit-def dead $rsp, implicit-def dead $eflags, implicit-def dead $ssp, implicit $rsp, implicit $ssp
  ADJCALLSTACKDOWN64 0, 0, 0, implicit-def dead $rsp, implicit-def dead $eflags, implicit-def dead $ssp, implicit $rsp, implicit $ssp
  %1:gr64 = MOV32ri64 @_ZNSt8ios_base4InitD1Ev
  %2:gr64 = MOV32ri64 @__dso_handle
  $rdi = COPY %1:gr64
  $rsi = COPY %0:gr64
  $rdx = COPY %2:gr64
  CALL64pcrel32 @__cxa_atexit, <regmask $bh $bl $bp $bph $bpl $bx $ebp $ebx $hbp $hbx $rbp $rbx $r12 $r13 $r14 $r15 $r12b $r13b $r14b $r15b $r12bh $r13bh $r14bh $r15bh $r12d $r13d $r14d $r15d $r12w $r13w $r14w $r15w $r12wh and 3 more...>, implicit $rsp, implicit $ssp, implicit $rdi, implicit $rsi, implicit $rdx, implicit-def $rsp, implicit-def $ssp, implicit-def $eax
  ADJCALLSTACKUP64 0, 0, implicit-def dead $rsp, implicit-def dead $eflags, implicit-def dead $ssp, implicit $rsp, implicit $ssp
  RET 0

# End machine code for function __cxx_global_var_init.

# *** IR Dump Before X86 LEA Optimize ***:
# Machine code for function __cxx_global_var_init: IsSSA, TracksLiveness

bb.0 (%ir-block.0):
  ADJCALLSTACKDOWN64 0, 0, 0, implicit-def dead $rsp, implicit-def dead $eflags, implicit-def dead $ssp, implicit $rsp, implicit $ssp
  %0:gr64 = MOV32ri64 @_ZStL8__ioinit
  $rdi = COPY %0:gr64
  CALL64pcrel32 @_ZNSt8ios_base4InitC1Ev, <regmask $bh $bl $bp $bph $bpl $bx $ebp $ebx $hbp $hbx $rbp $rbx $r12 $r13 $r14 $r15 $r12b $r13b $r14b $r15b $r12bh $r13bh $r14bh $r15bh $r12d $r13d $r14d $r15d $r12w $r13w $r14w $r15w $r12wh and 3 more...>, implicit $rsp, implicit $ssp, implicit $rdi, implicit-def $rsp, implicit-def $ssp
  ADJCALLSTACKUP64 0, 0, implicit-def dead $rsp, implicit-def dead $eflags, implicit-def dead $ssp, implicit $rsp, implicit $ssp
  ADJCALLSTACKDOWN64 0, 0, 0, implicit-def dead $rsp, implicit-def dead $eflags, implicit-def dead $ssp, implicit $rsp, implicit $ssp
  %1:gr64 = MOV32ri64 @_ZNSt8ios_base4InitD1Ev
  %2:gr64 = MOV32ri64 @__dso_handle
  $rdi = COPY %1:gr64
  $rsi = COPY %0:gr64
  $rdx = COPY %2:gr64
  CALL64pcrel32 @__cxa_atexit, <regmask $bh $bl $bp $bph $bpl $bx $ebp $ebx $hbp $hbx $rbp $rbx $r12 $r13 $r14 $r15 $r12b $r13b $r14b $r15b $r12bh $r13bh $r14bh $r15bh $r12d $r13d $r14d $r15d $r12w $r13w $r14w $r15w $r12wh and 3 more...>, implicit $rsp, implicit $ssp, implicit $rdi, implicit $rsi, implicit $rdx, implicit-def $rsp, implicit-def $ssp, implicit-def $eax
  ADJCALLSTACKUP64 0, 0, implicit-def dead $rsp, implicit-def dead $eflags, implicit-def dead $ssp, implicit $rsp, implicit $ssp
  RET 0

# End machine code for function __cxx_global_var_init.

# *** IR Dump After X86 LEA Optimize ***:
# Machine code for function __cxx_global_var_init: IsSSA, TracksLiveness

bb.0 (%ir-block.0):
  ADJCALLSTACKDOWN64 0, 0, 0, implicit-def dead $rsp, implicit-def dead $eflags, implicit-def dead $ssp, implicit $rsp, implicit $ssp
  %0:gr64 = MOV32ri64 @_ZStL8__ioinit
  $rdi = COPY %0:gr64
  CALL64pcrel32 @_ZNSt8ios_base4InitC1Ev, <regmask $bh $bl $bp $bph $bpl $bx $ebp $ebx $hbp $hbx $rbp $rbx $r12 $r13 $r14 $r15 $r12b $r13b $r14b $r15b $r12bh $r13bh $r14bh $r15bh $r12d $r13d $r14d $r15d $r12w $r13w $r14w $r15w $r12wh and 3 more...>, implicit $rsp, implicit $ssp, implicit $rdi, implicit-def $rsp, implicit-def $ssp
  ADJCALLSTACKUP64 0, 0, implicit-def dead $rsp, implicit-def dead $eflags, implicit-def dead $ssp, implicit $rsp, implicit $ssp
  ADJCALLSTACKDOWN64 0, 0, 0, implicit-def dead $rsp, implicit-def dead $eflags, implicit-def dead $ssp, implicit $rsp, implicit $ssp
  %1:gr64 = MOV32ri64 @_ZNSt8ios_base4InitD1Ev
  %2:gr64 = MOV32ri64 @__dso_handle
  $rdi = COPY %1:gr64
  $rsi = COPY %0:gr64
  $rdx = COPY %2:gr64
  CALL64pcrel32 @__cxa_atexit, <regmask $bh $bl $bp $bph $bpl $bx $ebp $ebx $hbp $hbx $rbp $rbx $r12 $r13 $r14 $r15 $r12b $r13b $r14b $r15b $r12bh $r13bh $r14bh $r15bh $r12d $r13d $r14d $r15d $r12w $r13w $r14w $r15w $r12wh and 3 more...>, implicit $rsp, implicit $ssp, implicit $rdi, implicit $rsi, implicit $rdx, implicit-def $rsp, implicit-def $ssp, implicit-def $eax
  ADJCALLSTACKUP64 0, 0, implicit-def dead $rsp, implicit-def dead $eflags, implicit-def dead $ssp, implicit $rsp, implicit $ssp
  RET 0

# End machine code for function __cxx_global_var_init.

# *** IR Dump Before X86 Optimize Call Frame ***:
# Machine code for function __cxx_global_var_init: IsSSA, TracksLiveness

bb.0 (%ir-block.0):
  ADJCALLSTACKDOWN64 0, 0, 0, implicit-def dead $rsp, implicit-def dead $eflags, implicit-def dead $ssp, implicit $rsp, implicit $ssp
  %0:gr64 = MOV32ri64 @_ZStL8__ioinit
  $rdi = COPY %0:gr64
  CALL64pcrel32 @_ZNSt8ios_base4InitC1Ev, <regmask $bh $bl $bp $bph $bpl $bx $ebp $ebx $hbp $hbx $rbp $rbx $r12 $r13 $r14 $r15 $r12b $r13b $r14b $r15b $r12bh $r13bh $r14bh $r15bh $r12d $r13d $r14d $r15d $r12w $r13w $r14w $r15w $r12wh and 3 more...>, implicit $rsp, implicit $ssp, implicit $rdi, implicit-def $rsp, implicit-def $ssp
  ADJCALLSTACKUP64 0, 0, implicit-def dead $rsp, implicit-def dead $eflags, implicit-def dead $ssp, implicit $rsp, implicit $ssp
  ADJCALLSTACKDOWN64 0, 0, 0, implicit-def dead $rsp, implicit-def dead $eflags, implicit-def dead $ssp, implicit $rsp, implicit $ssp
  %1:gr64 = MOV32ri64 @_ZNSt8ios_base4InitD1Ev
  %2:gr64 = MOV32ri64 @__dso_handle
  $rdi = COPY %1:gr64
  $rsi = COPY %0:gr64
  $rdx = COPY %2:gr64
  CALL64pcrel32 @__cxa_atexit, <regmask $bh $bl $bp $bph $bpl $bx $ebp $ebx $hbp $hbx $rbp $rbx $r12 $r13 $r14 $r15 $r12b $r13b $r14b $r15b $r12bh $r13bh $r14bh $r15bh $r12d $r13d $r14d $r15d $r12w $r13w $r14w $r15w $r12wh and 3 more...>, implicit $rsp, implicit $ssp, implicit $rdi, implicit $rsi, implicit $rdx, implicit-def $rsp, implicit-def $ssp, implicit-def $eax
  ADJCALLSTACKUP64 0, 0, implicit-def dead $rsp, implicit-def dead $eflags, implicit-def dead $ssp, implicit $rsp, implicit $ssp
  RET 0

# End machine code for function __cxx_global_var_init.

# *** IR Dump After X86 Optimize Call Frame ***:
# Machine code for function __cxx_global_var_init: IsSSA, TracksLiveness

bb.0 (%ir-block.0):
  ADJCALLSTACKDOWN64 0, 0, 0, implicit-def dead $rsp, implicit-def dead $eflags, implicit-def dead $ssp, implicit $rsp, implicit $ssp
  %0:gr64 = MOV32ri64 @_ZStL8__ioinit
  $rdi = COPY %0:gr64
  CALL64pcrel32 @_ZNSt8ios_base4InitC1Ev, <regmask $bh $bl $bp $bph $bpl $bx $ebp $ebx $hbp $hbx $rbp $rbx $r12 $r13 $r14 $r15 $r12b $r13b $r14b $r15b $r12bh $r13bh $r14bh $r15bh $r12d $r13d $r14d $r15d $r12w $r13w $r14w $r15w $r12wh and 3 more...>, implicit $rsp, implicit $ssp, implicit $rdi, implicit-def $rsp, implicit-def $ssp
  ADJCALLSTACKUP64 0, 0, implicit-def dead $rsp, implicit-def dead $eflags, implicit-def dead $ssp, implicit $rsp, implicit $ssp
  ADJCALLSTACKDOWN64 0, 0, 0, implicit-def dead $rsp, implicit-def dead $eflags, implicit-def dead $ssp, implicit $rsp, implicit $ssp
  %1:gr64 = MOV32ri64 @_ZNSt8ios_base4InitD1Ev
  %2:gr64 = MOV32ri64 @__dso_handle
  $rdi = COPY %1:gr64
  $rsi = COPY %0:gr64
  $rdx = COPY %2:gr64
  CALL64pcrel32 @__cxa_atexit, <regmask $bh $bl $bp $bph $bpl $bx $ebp $ebx $hbp $hbx $rbp $rbx $r12 $r13 $r14 $r15 $r12b $r13b $r14b $r15b $r12bh $r13bh $r14bh $r15bh $r12d $r13d $r14d $r15d $r12w $r13w $r14w $r15w $r12wh and 3 more...>, implicit $rsp, implicit $ssp, implicit $rdi, implicit $rsi, implicit $rdx, implicit-def $rsp, implicit-def $ssp, implicit-def $eax
  ADJCALLSTACKUP64 0, 0, implicit-def dead $rsp, implicit-def dead $eflags, implicit-def dead $ssp, implicit $rsp, implicit $ssp
  RET 0

# End machine code for function __cxx_global_var_init.

# *** IR Dump Before X86 Avoid Store Forwarding Blocks ***:
# Machine code for function __cxx_global_var_init: IsSSA, TracksLiveness

bb.0 (%ir-block.0):
  ADJCALLSTACKDOWN64 0, 0, 0, implicit-def dead $rsp, implicit-def dead $eflags, implicit-def dead $ssp, implicit $rsp, implicit $ssp
  %0:gr64 = MOV32ri64 @_ZStL8__ioinit
  $rdi = COPY %0:gr64
  CALL64pcrel32 @_ZNSt8ios_base4InitC1Ev, <regmask $bh $bl $bp $bph $bpl $bx $ebp $ebx $hbp $hbx $rbp $rbx $r12 $r13 $r14 $r15 $r12b $r13b $r14b $r15b $r12bh $r13bh $r14bh $r15bh $r12d $r13d $r14d $r15d $r12w $r13w $r14w $r15w $r12wh and 3 more...>, implicit $rsp, implicit $ssp, implicit $rdi, implicit-def $rsp, implicit-def $ssp
  ADJCALLSTACKUP64 0, 0, implicit-def dead $rsp, implicit-def dead $eflags, implicit-def dead $ssp, implicit $rsp, implicit $ssp
  ADJCALLSTACKDOWN64 0, 0, 0, implicit-def dead $rsp, implicit-def dead $eflags, implicit-def dead $ssp, implicit $rsp, implicit $ssp
  %1:gr64 = MOV32ri64 @_ZNSt8ios_base4InitD1Ev
  %2:gr64 = MOV32ri64 @__dso_handle
  $rdi = COPY %1:gr64
  $rsi = COPY %0:gr64
  $rdx = COPY %2:gr64
  CALL64pcrel32 @__cxa_atexit, <regmask $bh $bl $bp $bph $bpl $bx $ebp $ebx $hbp $hbx $rbp $rbx $r12 $r13 $r14 $r15 $r12b $r13b $r14b $r15b $r12bh $r13bh $r14bh $r15bh $r12d $r13d $r14d $r15d $r12w $r13w $r14w $r15w $r12wh and 3 more...>, implicit $rsp, implicit $ssp, implicit $rdi, implicit $rsi, implicit $rdx, implicit-def $rsp, implicit-def $ssp, implicit-def $eax
  ADJCALLSTACKUP64 0, 0, implicit-def dead $rsp, implicit-def dead $eflags, implicit-def dead $ssp, implicit $rsp, implicit $ssp
  RET 0

# End machine code for function __cxx_global_var_init.

# *** IR Dump After X86 Avoid Store Forwarding Blocks ***:
# Machine code for function __cxx_global_var_init: IsSSA, TracksLiveness

bb.0 (%ir-block.0):
  ADJCALLSTACKDOWN64 0, 0, 0, implicit-def dead $rsp, implicit-def dead $eflags, implicit-def dead $ssp, implicit $rsp, implicit $ssp
  %0:gr64 = MOV32ri64 @_ZStL8__ioinit
  $rdi = COPY %0:gr64
  CALL64pcrel32 @_ZNSt8ios_base4InitC1Ev, <regmask $bh $bl $bp $bph $bpl $bx $ebp $ebx $hbp $hbx $rbp $rbx $r12 $r13 $r14 $r15 $r12b $r13b $r14b $r15b $r12bh $r13bh $r14bh $r15bh $r12d $r13d $r14d $r15d $r12w $r13w $r14w $r15w $r12wh and 3 more...>, implicit $rsp, implicit $ssp, implicit $rdi, implicit-def $rsp, implicit-def $ssp
  ADJCALLSTACKUP64 0, 0, implicit-def dead $rsp, implicit-def dead $eflags, implicit-def dead $ssp, implicit $rsp, implicit $ssp
  ADJCALLSTACKDOWN64 0, 0, 0, implicit-def dead $rsp, implicit-def dead $eflags, implicit-def dead $ssp, implicit $rsp, implicit $ssp
  %1:gr64 = MOV32ri64 @_ZNSt8ios_base4InitD1Ev
  %2:gr64 = MOV32ri64 @__dso_handle
  $rdi = COPY %1:gr64
  $rsi = COPY %0:gr64
  $rdx = COPY %2:gr64
  CALL64pcrel32 @__cxa_atexit, <regmask $bh $bl $bp $bph $bpl $bx $ebp $ebx $hbp $hbx $rbp $rbx $r12 $r13 $r14 $r15 $r12b $r13b $r14b $r15b $r12bh $r13bh $r14bh $r15bh $r12d $r13d $r14d $r15d $r12w $r13w $r14w $r15w $r12wh and 3 more...>, implicit $rsp, implicit $ssp, implicit $rdi, implicit $rsi, implicit $rdx, implicit-def $rsp, implicit-def $ssp, implicit-def $eax
  ADJCALLSTACKUP64 0, 0, implicit-def dead $rsp, implicit-def dead $eflags, implicit-def dead $ssp, implicit $rsp, implicit $ssp
  RET 0

# End machine code for function __cxx_global_var_init.

# *** IR Dump Before X86 speculative load hardening ***:
# Machine code for function __cxx_global_var_init: IsSSA, TracksLiveness

bb.0 (%ir-block.0):
  ADJCALLSTACKDOWN64 0, 0, 0, implicit-def dead $rsp, implicit-def dead $eflags, implicit-def dead $ssp, implicit $rsp, implicit $ssp
  %0:gr64 = MOV32ri64 @_ZStL8__ioinit
  $rdi = COPY %0:gr64
  CALL64pcrel32 @_ZNSt8ios_base4InitC1Ev, <regmask $bh $bl $bp $bph $bpl $bx $ebp $ebx $hbp $hbx $rbp $rbx $r12 $r13 $r14 $r15 $r12b $r13b $r14b $r15b $r12bh $r13bh $r14bh $r15bh $r12d $r13d $r14d $r15d $r12w $r13w $r14w $r15w $r12wh and 3 more...>, implicit $rsp, implicit $ssp, implicit $rdi, implicit-def $rsp, implicit-def $ssp
  ADJCALLSTACKUP64 0, 0, implicit-def dead $rsp, implicit-def dead $eflags, implicit-def dead $ssp, implicit $rsp, implicit $ssp
  ADJCALLSTACKDOWN64 0, 0, 0, implicit-def dead $rsp, implicit-def dead $eflags, implicit-def dead $ssp, implicit $rsp, implicit $ssp
  %1:gr64 = MOV32ri64 @_ZNSt8ios_base4InitD1Ev
  %2:gr64 = MOV32ri64 @__dso_handle
  $rdi = COPY %1:gr64
  $rsi = COPY %0:gr64
  $rdx = COPY %2:gr64
  CALL64pcrel32 @__cxa_atexit, <regmask $bh $bl $bp $bph $bpl $bx $ebp $ebx $hbp $hbx $rbp $rbx $r12 $r13 $r14 $r15 $r12b $r13b $r14b $r15b $r12bh $r13bh $r14bh $r15bh $r12d $r13d $r14d $r15d $r12w $r13w $r14w $r15w $r12wh and 3 more...>, implicit $rsp, implicit $ssp, implicit $rdi, implicit $rsi, implicit $rdx, implicit-def $rsp, implicit-def $ssp, implicit-def $eax
  ADJCALLSTACKUP64 0, 0, implicit-def dead $rsp, implicit-def dead $eflags, implicit-def dead $ssp, implicit $rsp, implicit $ssp
  RET 0

# End machine code for function __cxx_global_var_init.

# *** IR Dump After X86 speculative load hardening ***:
# Machine code for function __cxx_global_var_init: IsSSA, TracksLiveness

bb.0 (%ir-block.0):
  ADJCALLSTACKDOWN64 0, 0, 0, implicit-def dead $rsp, implicit-def dead $eflags, implicit-def dead $ssp, implicit $rsp, implicit $ssp
  %0:gr64 = MOV32ri64 @_ZStL8__ioinit
  $rdi = COPY %0:gr64
  CALL64pcrel32 @_ZNSt8ios_base4InitC1Ev, <regmask $bh $bl $bp $bph $bpl $bx $ebp $ebx $hbp $hbx $rbp $rbx $r12 $r13 $r14 $r15 $r12b $r13b $r14b $r15b $r12bh $r13bh $r14bh $r15bh $r12d $r13d $r14d $r15d $r12w $r13w $r14w $r15w $r12wh and 3 more...>, implicit $rsp, implicit $ssp, implicit $rdi, implicit-def $rsp, implicit-def $ssp
  ADJCALLSTACKUP64 0, 0, implicit-def dead $rsp, implicit-def dead $eflags, implicit-def dead $ssp, implicit $rsp, implicit $ssp
  ADJCALLSTACKDOWN64 0, 0, 0, implicit-def dead $rsp, implicit-def dead $eflags, implicit-def dead $ssp, implicit $rsp, implicit $ssp
  %1:gr64 = MOV32ri64 @_ZNSt8ios_base4InitD1Ev
  %2:gr64 = MOV32ri64 @__dso_handle
  $rdi = COPY %1:gr64
  $rsi = COPY %0:gr64
  $rdx = COPY %2:gr64
  CALL64pcrel32 @__cxa_atexit, <regmask $bh $bl $bp $bph $bpl $bx $ebp $ebx $hbp $hbx $rbp $rbx $r12 $r13 $r14 $r15 $r12b $r13b $r14b $r15b $r12bh $r13bh $r14bh $r15bh $r12d $r13d $r14d $r15d $r12w $r13w $r14w $r15w $r12wh and 3 more...>, implicit $rsp, implicit $ssp, implicit $rdi, implicit $rsi, implicit $rdx, implicit-def $rsp, implicit-def $ssp, implicit-def $eax
  ADJCALLSTACKUP64 0, 0, implicit-def dead $rsp, implicit-def dead $eflags, implicit-def dead $ssp, implicit $rsp, implicit $ssp
  RET 0

# End machine code for function __cxx_global_var_init.

# *** IR Dump Before X86 EFLAGS copy lowering ***:
# Machine code for function __cxx_global_var_init: IsSSA, TracksLiveness

bb.0 (%ir-block.0):
  ADJCALLSTACKDOWN64 0, 0, 0, implicit-def dead $rsp, implicit-def dead $eflags, implicit-def dead $ssp, implicit $rsp, implicit $ssp
  %0:gr64 = MOV32ri64 @_ZStL8__ioinit
  $rdi = COPY %0:gr64
  CALL64pcrel32 @_ZNSt8ios_base4InitC1Ev, <regmask $bh $bl $bp $bph $bpl $bx $ebp $ebx $hbp $hbx $rbp $rbx $r12 $r13 $r14 $r15 $r12b $r13b $r14b $r15b $r12bh $r13bh $r14bh $r15bh $r12d $r13d $r14d $r15d $r12w $r13w $r14w $r15w $r12wh and 3 more...>, implicit $rsp, implicit $ssp, implicit $rdi, implicit-def $rsp, implicit-def $ssp
  ADJCALLSTACKUP64 0, 0, implicit-def dead $rsp, implicit-def dead $eflags, implicit-def dead $ssp, implicit $rsp, implicit $ssp
  ADJCALLSTACKDOWN64 0, 0, 0, implicit-def dead $rsp, implicit-def dead $eflags, implicit-def dead $ssp, implicit $rsp, implicit $ssp
  %1:gr64 = MOV32ri64 @_ZNSt8ios_base4InitD1Ev
  %2:gr64 = MOV32ri64 @__dso_handle
  $rdi = COPY %1:gr64
  $rsi = COPY %0:gr64
  $rdx = COPY %2:gr64
  CALL64pcrel32 @__cxa_atexit, <regmask $bh $bl $bp $bph $bpl $bx $ebp $ebx $hbp $hbx $rbp $rbx $r12 $r13 $r14 $r15 $r12b $r13b $r14b $r15b $r12bh $r13bh $r14bh $r15bh $r12d $r13d $r14d $r15d $r12w $r13w $r14w $r15w $r12wh and 3 more...>, implicit $rsp, implicit $ssp, implicit $rdi, implicit $rsi, implicit $rdx, implicit-def $rsp, implicit-def $ssp, implicit-def $eax
  ADJCALLSTACKUP64 0, 0, implicit-def dead $rsp, implicit-def dead $eflags, implicit-def dead $ssp, implicit $rsp, implicit $ssp
  RET 0

# End machine code for function __cxx_global_var_init.

# *** IR Dump After X86 EFLAGS copy lowering ***:
# Machine code for function __cxx_global_var_init: IsSSA, TracksLiveness

bb.0 (%ir-block.0):
  ADJCALLSTACKDOWN64 0, 0, 0, implicit-def dead $rsp, implicit-def dead $eflags, implicit-def dead $ssp, implicit $rsp, implicit $ssp
  %0:gr64 = MOV32ri64 @_ZStL8__ioinit
  $rdi = COPY %0:gr64
  CALL64pcrel32 @_ZNSt8ios_base4InitC1Ev, <regmask $bh $bl $bp $bph $bpl $bx $ebp $ebx $hbp $hbx $rbp $rbx $r12 $r13 $r14 $r15 $r12b $r13b $r14b $r15b $r12bh $r13bh $r14bh $r15bh $r12d $r13d $r14d $r15d $r12w $r13w $r14w $r15w $r12wh and 3 more...>, implicit $rsp, implicit $ssp, implicit $rdi, implicit-def $rsp, implicit-def $ssp
  ADJCALLSTACKUP64 0, 0, implicit-def dead $rsp, implicit-def dead $eflags, implicit-def dead $ssp, implicit $rsp, implicit $ssp
  ADJCALLSTACKDOWN64 0, 0, 0, implicit-def dead $rsp, implicit-def dead $eflags, implicit-def dead $ssp, implicit $rsp, implicit $ssp
  %1:gr64 = MOV32ri64 @_ZNSt8ios_base4InitD1Ev
  %2:gr64 = MOV32ri64 @__dso_handle
  $rdi = COPY %1:gr64
  $rsi = COPY %0:gr64
  $rdx = COPY %2:gr64
  CALL64pcrel32 @__cxa_atexit, <regmask $bh $bl $bp $bph $bpl $bx $ebp $ebx $hbp $hbx $rbp $rbx $r12 $r13 $r14 $r15 $r12b $r13b $r14b $r15b $r12bh $r13bh $r14bh $r15bh $r12d $r13d $r14d $r15d $r12w $r13w $r14w $r15w $r12wh and 3 more...>, implicit $rsp, implicit $ssp, implicit $rdi, implicit $rsi, implicit $rdx, implicit-def $rsp, implicit-def $ssp, implicit-def $eax
  ADJCALLSTACKUP64 0, 0, implicit-def dead $rsp, implicit-def dead $eflags, implicit-def dead $ssp, implicit $rsp, implicit $ssp
  RET 0

# End machine code for function __cxx_global_var_init.

# *** IR Dump Before Detect Dead Lanes ***:
# Machine code for function __cxx_global_var_init: IsSSA, TracksLiveness

bb.0 (%ir-block.0):
  ADJCALLSTACKDOWN64 0, 0, 0, implicit-def dead $rsp, implicit-def dead $eflags, implicit-def dead $ssp, implicit $rsp, implicit $ssp
  %0:gr64 = MOV32ri64 @_ZStL8__ioinit
  $rdi = COPY %0:gr64
  CALL64pcrel32 @_ZNSt8ios_base4InitC1Ev, <regmask $bh $bl $bp $bph $bpl $bx $ebp $ebx $hbp $hbx $rbp $rbx $r12 $r13 $r14 $r15 $r12b $r13b $r14b $r15b $r12bh $r13bh $r14bh $r15bh $r12d $r13d $r14d $r15d $r12w $r13w $r14w $r15w $r12wh and 3 more...>, implicit $rsp, implicit $ssp, implicit $rdi, implicit-def $rsp, implicit-def $ssp
  ADJCALLSTACKUP64 0, 0, implicit-def dead $rsp, implicit-def dead $eflags, implicit-def dead $ssp, implicit $rsp, implicit $ssp
  ADJCALLSTACKDOWN64 0, 0, 0, implicit-def dead $rsp, implicit-def dead $eflags, implicit-def dead $ssp, implicit $rsp, implicit $ssp
  %1:gr64 = MOV32ri64 @_ZNSt8ios_base4InitD1Ev
  %2:gr64 = MOV32ri64 @__dso_handle
  $rdi = COPY %1:gr64
  $rsi = COPY %0:gr64
  $rdx = COPY %2:gr64
  CALL64pcrel32 @__cxa_atexit, <regmask $bh $bl $bp $bph $bpl $bx $ebp $ebx $hbp $hbx $rbp $rbx $r12 $r13 $r14 $r15 $r12b $r13b $r14b $r15b $r12bh $r13bh $r14bh $r15bh $r12d $r13d $r14d $r15d $r12w $r13w $r14w $r15w $r12wh and 3 more...>, implicit $rsp, implicit $ssp, implicit $rdi, implicit $rsi, implicit $rdx, implicit-def $rsp, implicit-def $ssp, implicit-def $eax
  ADJCALLSTACKUP64 0, 0, implicit-def dead $rsp, implicit-def dead $eflags, implicit-def dead $ssp, implicit $rsp, implicit $ssp
  RET 0

# End machine code for function __cxx_global_var_init.

# *** IR Dump After Detect Dead Lanes ***:
# Machine code for function __cxx_global_var_init: IsSSA, TracksLiveness

bb.0 (%ir-block.0):
  ADJCALLSTACKDOWN64 0, 0, 0, implicit-def dead $rsp, implicit-def dead $eflags, implicit-def dead $ssp, implicit $rsp, implicit $ssp
  %0:gr64 = MOV32ri64 @_ZStL8__ioinit
  $rdi = COPY %0:gr64
  CALL64pcrel32 @_ZNSt8ios_base4InitC1Ev, <regmask $bh $bl $bp $bph $bpl $bx $ebp $ebx $hbp $hbx $rbp $rbx $r12 $r13 $r14 $r15 $r12b $r13b $r14b $r15b $r12bh $r13bh $r14bh $r15bh $r12d $r13d $r14d $r15d $r12w $r13w $r14w $r15w $r12wh and 3 more...>, implicit $rsp, implicit $ssp, implicit $rdi, implicit-def $rsp, implicit-def $ssp
  ADJCALLSTACKUP64 0, 0, implicit-def dead $rsp, implicit-def dead $eflags, implicit-def dead $ssp, implicit $rsp, implicit $ssp
  ADJCALLSTACKDOWN64 0, 0, 0, implicit-def dead $rsp, implicit-def dead $eflags, implicit-def dead $ssp, implicit $rsp, implicit $ssp
  %1:gr64 = MOV32ri64 @_ZNSt8ios_base4InitD1Ev
  %2:gr64 = MOV32ri64 @__dso_handle
  $rdi = COPY %1:gr64
  $rsi = COPY %0:gr64
  $rdx = COPY %2:gr64
  CALL64pcrel32 @__cxa_atexit, <regmask $bh $bl $bp $bph $bpl $bx $ebp $ebx $hbp $hbx $rbp $rbx $r12 $r13 $r14 $r15 $r12b $r13b $r14b $r15b $r12bh $r13bh $r14bh $r15bh $r12d $r13d $r14d $r15d $r12w $r13w $r14w $r15w $r12wh and 3 more...>, implicit $rsp, implicit $ssp, implicit $rdi, implicit $rsi, implicit $rdx, implicit-def $rsp, implicit-def $ssp, implicit-def $eax
  ADJCALLSTACKUP64 0, 0, implicit-def dead $rsp, implicit-def dead $eflags, implicit-def dead $ssp, implicit $rsp, implicit $ssp
  RET 0

# End machine code for function __cxx_global_var_init.

# *** IR Dump Before Process Implicit Definitions ***:
# Machine code for function __cxx_global_var_init: IsSSA, TracksLiveness

bb.0 (%ir-block.0):
  ADJCALLSTACKDOWN64 0, 0, 0, implicit-def dead $rsp, implicit-def dead $eflags, implicit-def dead $ssp, implicit $rsp, implicit $ssp
  %0:gr64 = MOV32ri64 @_ZStL8__ioinit
  $rdi = COPY %0:gr64
  CALL64pcrel32 @_ZNSt8ios_base4InitC1Ev, <regmask $bh $bl $bp $bph $bpl $bx $ebp $ebx $hbp $hbx $rbp $rbx $r12 $r13 $r14 $r15 $r12b $r13b $r14b $r15b $r12bh $r13bh $r14bh $r15bh $r12d $r13d $r14d $r15d $r12w $r13w $r14w $r15w $r12wh and 3 more...>, implicit $rsp, implicit $ssp, implicit $rdi, implicit-def $rsp, implicit-def $ssp
  ADJCALLSTACKUP64 0, 0, implicit-def dead $rsp, implicit-def dead $eflags, implicit-def dead $ssp, implicit $rsp, implicit $ssp
  ADJCALLSTACKDOWN64 0, 0, 0, implicit-def dead $rsp, implicit-def dead $eflags, implicit-def dead $ssp, implicit $rsp, implicit $ssp
  %1:gr64 = MOV32ri64 @_ZNSt8ios_base4InitD1Ev
  %2:gr64 = MOV32ri64 @__dso_handle
  $rdi = COPY %1:gr64
  $rsi = COPY %0:gr64
  $rdx = COPY %2:gr64
  CALL64pcrel32 @__cxa_atexit, <regmask $bh $bl $bp $bph $bpl $bx $ebp $ebx $hbp $hbx $rbp $rbx $r12 $r13 $r14 $r15 $r12b $r13b $r14b $r15b $r12bh $r13bh $r14bh $r15bh $r12d $r13d $r14d $r15d $r12w $r13w $r14w $r15w $r12wh and 3 more...>, implicit $rsp, implicit $ssp, implicit $rdi, implicit $rsi, implicit $rdx, implicit-def $rsp, implicit-def $ssp, implicit-def $eax
  ADJCALLSTACKUP64 0, 0, implicit-def dead $rsp, implicit-def dead $eflags, implicit-def dead $ssp, implicit $rsp, implicit $ssp
  RET 0

# End machine code for function __cxx_global_var_init.

# *** IR Dump After Process Implicit Definitions ***:
# Machine code for function __cxx_global_var_init: IsSSA, TracksLiveness

bb.0 (%ir-block.0):
  ADJCALLSTACKDOWN64 0, 0, 0, implicit-def dead $rsp, implicit-def dead $eflags, implicit-def dead $ssp, implicit $rsp, implicit $ssp
  %0:gr64 = MOV32ri64 @_ZStL8__ioinit
  $rdi = COPY %0:gr64
  CALL64pcrel32 @_ZNSt8ios_base4InitC1Ev, <regmask $bh $bl $bp $bph $bpl $bx $ebp $ebx $hbp $hbx $rbp $rbx $r12 $r13 $r14 $r15 $r12b $r13b $r14b $r15b $r12bh $r13bh $r14bh $r15bh $r12d $r13d $r14d $r15d $r12w $r13w $r14w $r15w $r12wh and 3 more...>, implicit $rsp, implicit $ssp, implicit $rdi, implicit-def $rsp, implicit-def $ssp
  ADJCALLSTACKUP64 0, 0, implicit-def dead $rsp, implicit-def dead $eflags, implicit-def dead $ssp, implicit $rsp, implicit $ssp
  ADJCALLSTACKDOWN64 0, 0, 0, implicit-def dead $rsp, implicit-def dead $eflags, implicit-def dead $ssp, implicit $rsp, implicit $ssp
  %1:gr64 = MOV32ri64 @_ZNSt8ios_base4InitD1Ev
  %2:gr64 = MOV32ri64 @__dso_handle
  $rdi = COPY %1:gr64
  $rsi = COPY %0:gr64
  $rdx = COPY %2:gr64
  CALL64pcrel32 @__cxa_atexit, <regmask $bh $bl $bp $bph $bpl $bx $ebp $ebx $hbp $hbx $rbp $rbx $r12 $r13 $r14 $r15 $r12b $r13b $r14b $r15b $r12bh $r13bh $r14bh $r15bh $r12d $r13d $r14d $r15d $r12w $r13w $r14w $r15w $r12wh and 3 more...>, implicit $rsp, implicit $ssp, implicit $rdi, implicit $rsi, implicit $rdx, implicit-def $rsp, implicit-def $ssp, implicit-def $eax
  ADJCALLSTACKUP64 0, 0, implicit-def dead $rsp, implicit-def dead $eflags, implicit-def dead $ssp, implicit $rsp, implicit $ssp
  RET 0

# End machine code for function __cxx_global_var_init.

# *** IR Dump Before Remove unreachable machine basic blocks ***:
# Machine code for function __cxx_global_var_init: IsSSA, TracksLiveness

bb.0 (%ir-block.0):
  ADJCALLSTACKDOWN64 0, 0, 0, implicit-def dead $rsp, implicit-def dead $eflags, implicit-def dead $ssp, implicit $rsp, implicit $ssp
  %0:gr64 = MOV32ri64 @_ZStL8__ioinit
  $rdi = COPY %0:gr64
  CALL64pcrel32 @_ZNSt8ios_base4InitC1Ev, <regmask $bh $bl $bp $bph $bpl $bx $ebp $ebx $hbp $hbx $rbp $rbx $r12 $r13 $r14 $r15 $r12b $r13b $r14b $r15b $r12bh $r13bh $r14bh $r15bh $r12d $r13d $r14d $r15d $r12w $r13w $r14w $r15w $r12wh and 3 more...>, implicit $rsp, implicit $ssp, implicit $rdi, implicit-def $rsp, implicit-def $ssp
  ADJCALLSTACKUP64 0, 0, implicit-def dead $rsp, implicit-def dead $eflags, implicit-def dead $ssp, implicit $rsp, implicit $ssp
  ADJCALLSTACKDOWN64 0, 0, 0, implicit-def dead $rsp, implicit-def dead $eflags, implicit-def dead $ssp, implicit $rsp, implicit $ssp
  %1:gr64 = MOV32ri64 @_ZNSt8ios_base4InitD1Ev
  %2:gr64 = MOV32ri64 @__dso_handle
  $rdi = COPY %1:gr64
  $rsi = COPY %0:gr64
  $rdx = COPY %2:gr64
  CALL64pcrel32 @__cxa_atexit, <regmask $bh $bl $bp $bph $bpl $bx $ebp $ebx $hbp $hbx $rbp $rbx $r12 $r13 $r14 $r15 $r12b $r13b $r14b $r15b $r12bh $r13bh $r14bh $r15bh $r12d $r13d $r14d $r15d $r12w $r13w $r14w $r15w $r12wh and 3 more...>, implicit $rsp, implicit $ssp, implicit $rdi, implicit $rsi, implicit $rdx, implicit-def $rsp, implicit-def $ssp, implicit-def $eax
  ADJCALLSTACKUP64 0, 0, implicit-def dead $rsp, implicit-def dead $eflags, implicit-def dead $ssp, implicit $rsp, implicit $ssp
  RET 0

# End machine code for function __cxx_global_var_init.

# *** IR Dump After Remove unreachable machine basic blocks ***:
# Machine code for function __cxx_global_var_init: IsSSA, TracksLiveness

bb.0 (%ir-block.0):
  ADJCALLSTACKDOWN64 0, 0, 0, implicit-def dead $rsp, implicit-def dead $eflags, implicit-def dead $ssp, implicit $rsp, implicit $ssp
  %0:gr64 = MOV32ri64 @_ZStL8__ioinit
  $rdi = COPY %0:gr64
  CALL64pcrel32 @_ZNSt8ios_base4InitC1Ev, <regmask $bh $bl $bp $bph $bpl $bx $ebp $ebx $hbp $hbx $rbp $rbx $r12 $r13 $r14 $r15 $r12b $r13b $r14b $r15b $r12bh $r13bh $r14bh $r15bh $r12d $r13d $r14d $r15d $r12w $r13w $r14w $r15w $r12wh and 3 more...>, implicit $rsp, implicit $ssp, implicit $rdi, implicit-def $rsp, implicit-def $ssp
  ADJCALLSTACKUP64 0, 0, implicit-def dead $rsp, implicit-def dead $eflags, implicit-def dead $ssp, implicit $rsp, implicit $ssp
  ADJCALLSTACKDOWN64 0, 0, 0, implicit-def dead $rsp, implicit-def dead $eflags, implicit-def dead $ssp, implicit $rsp, implicit $ssp
  %1:gr64 = MOV32ri64 @_ZNSt8ios_base4InitD1Ev
  %2:gr64 = MOV32ri64 @__dso_handle
  $rdi = COPY %1:gr64
  $rsi = COPY %0:gr64
  $rdx = COPY %2:gr64
  CALL64pcrel32 @__cxa_atexit, <regmask $bh $bl $bp $bph $bpl $bx $ebp $ebx $hbp $hbx $rbp $rbx $r12 $r13 $r14 $r15 $r12b $r13b $r14b $r15b $r12bh $r13bh $r14bh $r15bh $r12d $r13d $r14d $r15d $r12w $r13w $r14w $r15w $r12wh and 3 more...>, implicit $rsp, implicit $ssp, implicit $rdi, implicit $rsi, implicit $rdx, implicit-def $rsp, implicit-def $ssp, implicit-def $eax
  ADJCALLSTACKUP64 0, 0, implicit-def dead $rsp, implicit-def dead $eflags, implicit-def dead $ssp, implicit $rsp, implicit $ssp
  RET 0

# End machine code for function __cxx_global_var_init.

# *** IR Dump Before Live Variable Analysis ***:
# Machine code for function __cxx_global_var_init: IsSSA, TracksLiveness

bb.0 (%ir-block.0):
  ADJCALLSTACKDOWN64 0, 0, 0, implicit-def dead $rsp, implicit-def dead $eflags, implicit-def dead $ssp, implicit $rsp, implicit $ssp
  %0:gr64 = MOV32ri64 @_ZStL8__ioinit
  $rdi = COPY %0:gr64
  CALL64pcrel32 @_ZNSt8ios_base4InitC1Ev, <regmask $bh $bl $bp $bph $bpl $bx $ebp $ebx $hbp $hbx $rbp $rbx $r12 $r13 $r14 $r15 $r12b $r13b $r14b $r15b $r12bh $r13bh $r14bh $r15bh $r12d $r13d $r14d $r15d $r12w $r13w $r14w $r15w $r12wh and 3 more...>, implicit $rsp, implicit $ssp, implicit $rdi, implicit-def $rsp, implicit-def $ssp
  ADJCALLSTACKUP64 0, 0, implicit-def dead $rsp, implicit-def dead $eflags, implicit-def dead $ssp, implicit $rsp, implicit $ssp
  ADJCALLSTACKDOWN64 0, 0, 0, implicit-def dead $rsp, implicit-def dead $eflags, implicit-def dead $ssp, implicit $rsp, implicit $ssp
  %1:gr64 = MOV32ri64 @_ZNSt8ios_base4InitD1Ev
  %2:gr64 = MOV32ri64 @__dso_handle
  $rdi = COPY %1:gr64
  $rsi = COPY %0:gr64
  $rdx = COPY %2:gr64
  CALL64pcrel32 @__cxa_atexit, <regmask $bh $bl $bp $bph $bpl $bx $ebp $ebx $hbp $hbx $rbp $rbx $r12 $r13 $r14 $r15 $r12b $r13b $r14b $r15b $r12bh $r13bh $r14bh $r15bh $r12d $r13d $r14d $r15d $r12w $r13w $r14w $r15w $r12wh and 3 more...>, implicit $rsp, implicit $ssp, implicit $rdi, implicit $rsi, implicit $rdx, implicit-def $rsp, implicit-def $ssp, implicit-def $eax
  ADJCALLSTACKUP64 0, 0, implicit-def dead $rsp, implicit-def dead $eflags, implicit-def dead $ssp, implicit $rsp, implicit $ssp
  RET 0

# End machine code for function __cxx_global_var_init.

# *** IR Dump After Live Variable Analysis ***:
# Machine code for function __cxx_global_var_init: IsSSA, TracksLiveness

bb.0 (%ir-block.0):
  ADJCALLSTACKDOWN64 0, 0, 0, implicit-def dead $rsp, implicit-def dead $eflags, implicit-def dead $ssp, implicit $rsp, implicit $ssp
  %0:gr64 = MOV32ri64 @_ZStL8__ioinit
  $rdi = COPY %0:gr64
  CALL64pcrel32 @_ZNSt8ios_base4InitC1Ev, <regmask $bh $bl $bp $bph $bpl $bx $ebp $ebx $hbp $hbx $rbp $rbx $r12 $r13 $r14 $r15 $r12b $r13b $r14b $r15b $r12bh $r13bh $r14bh $r15bh $r12d $r13d $r14d $r15d $r12w $r13w $r14w $r15w $r12wh and 3 more...>, implicit $rsp, implicit $ssp, implicit killed $rdi, implicit-def $rsp, implicit-def $ssp
  ADJCALLSTACKUP64 0, 0, implicit-def dead $rsp, implicit-def dead $eflags, implicit-def dead $ssp, implicit $rsp, implicit $ssp
  ADJCALLSTACKDOWN64 0, 0, 0, implicit-def dead $rsp, implicit-def dead $eflags, implicit-def dead $ssp, implicit $rsp, implicit $ssp
  %1:gr64 = MOV32ri64 @_ZNSt8ios_base4InitD1Ev
  %2:gr64 = MOV32ri64 @__dso_handle
  $rdi = COPY killed %1:gr64
  $rsi = COPY killed %0:gr64
  $rdx = COPY killed %2:gr64
  CALL64pcrel32 @__cxa_atexit, <regmask $bh $bl $bp $bph $bpl $bx $ebp $ebx $hbp $hbx $rbp $rbx $r12 $r13 $r14 $r15 $r12b $r13b $r14b $r15b $r12bh $r13bh $r14bh $r15bh $r12d $r13d $r14d $r15d $r12w $r13w $r14w $r15w $r12wh and 3 more...>, implicit $rsp, implicit $ssp, implicit killed $rdi, implicit killed $rsi, implicit killed $rdx, implicit-def $rsp, implicit-def $ssp, implicit-def dead $eax
  ADJCALLSTACKUP64 0, 0, implicit-def dead $rsp, implicit-def dead $eflags, implicit-def dead $ssp, implicit $rsp, implicit $ssp
  RET 0

# End machine code for function __cxx_global_var_init.

# *** IR Dump Before Eliminate PHI nodes for register allocation ***:
# Machine code for function __cxx_global_var_init: IsSSA, TracksLiveness

bb.0 (%ir-block.0):
  ADJCALLSTACKDOWN64 0, 0, 0, implicit-def dead $rsp, implicit-def dead $eflags, implicit-def dead $ssp, implicit $rsp, implicit $ssp
  %0:gr64 = MOV32ri64 @_ZStL8__ioinit
  $rdi = COPY %0:gr64
  CALL64pcrel32 @_ZNSt8ios_base4InitC1Ev, <regmask $bh $bl $bp $bph $bpl $bx $ebp $ebx $hbp $hbx $rbp $rbx $r12 $r13 $r14 $r15 $r12b $r13b $r14b $r15b $r12bh $r13bh $r14bh $r15bh $r12d $r13d $r14d $r15d $r12w $r13w $r14w $r15w $r12wh and 3 more...>, implicit $rsp, implicit $ssp, implicit killed $rdi, implicit-def $rsp, implicit-def $ssp
  ADJCALLSTACKUP64 0, 0, implicit-def dead $rsp, implicit-def dead $eflags, implicit-def dead $ssp, implicit $rsp, implicit $ssp
  ADJCALLSTACKDOWN64 0, 0, 0, implicit-def dead $rsp, implicit-def dead $eflags, implicit-def dead $ssp, implicit $rsp, implicit $ssp
  %1:gr64 = MOV32ri64 @_ZNSt8ios_base4InitD1Ev
  %2:gr64 = MOV32ri64 @__dso_handle
  $rdi = COPY killed %1:gr64
  $rsi = COPY killed %0:gr64
  $rdx = COPY killed %2:gr64
  CALL64pcrel32 @__cxa_atexit, <regmask $bh $bl $bp $bph $bpl $bx $ebp $ebx $hbp $hbx $rbp $rbx $r12 $r13 $r14 $r15 $r12b $r13b $r14b $r15b $r12bh $r13bh $r14bh $r15bh $r12d $r13d $r14d $r15d $r12w $r13w $r14w $r15w $r12wh and 3 more...>, implicit $rsp, implicit $ssp, implicit killed $rdi, implicit killed $rsi, implicit killed $rdx, implicit-def $rsp, implicit-def $ssp, implicit-def dead $eax
  ADJCALLSTACKUP64 0, 0, implicit-def dead $rsp, implicit-def dead $eflags, implicit-def dead $ssp, implicit $rsp, implicit $ssp
  RET 0

# End machine code for function __cxx_global_var_init.

# *** IR Dump After Eliminate PHI nodes for register allocation ***:
# Machine code for function __cxx_global_var_init: NoPHIs, TracksLiveness

bb.0 (%ir-block.0):
  ADJCALLSTACKDOWN64 0, 0, 0, implicit-def dead $rsp, implicit-def dead $eflags, implicit-def dead $ssp, implicit $rsp, implicit $ssp
  %0:gr64 = MOV32ri64 @_ZStL8__ioinit
  $rdi = COPY %0:gr64
  CALL64pcrel32 @_ZNSt8ios_base4InitC1Ev, <regmask $bh $bl $bp $bph $bpl $bx $ebp $ebx $hbp $hbx $rbp $rbx $r12 $r13 $r14 $r15 $r12b $r13b $r14b $r15b $r12bh $r13bh $r14bh $r15bh $r12d $r13d $r14d $r15d $r12w $r13w $r14w $r15w $r12wh and 3 more...>, implicit $rsp, implicit $ssp, implicit killed $rdi, implicit-def $rsp, implicit-def $ssp
  ADJCALLSTACKUP64 0, 0, implicit-def dead $rsp, implicit-def dead $eflags, implicit-def dead $ssp, implicit $rsp, implicit $ssp
  ADJCALLSTACKDOWN64 0, 0, 0, implicit-def dead $rsp, implicit-def dead $eflags, implicit-def dead $ssp, implicit $rsp, implicit $ssp
  %1:gr64 = MOV32ri64 @_ZNSt8ios_base4InitD1Ev
  %2:gr64 = MOV32ri64 @__dso_handle
  $rdi = COPY killed %1:gr64
  $rsi = COPY killed %0:gr64
  $rdx = COPY killed %2:gr64
  CALL64pcrel32 @__cxa_atexit, <regmask $bh $bl $bp $bph $bpl $bx $ebp $ebx $hbp $hbx $rbp $rbx $r12 $r13 $r14 $r15 $r12b $r13b $r14b $r15b $r12bh $r13bh $r14bh $r15bh $r12d $r13d $r14d $r15d $r12w $r13w $r14w $r15w $r12wh and 3 more...>, implicit $rsp, implicit $ssp, implicit killed $rdi, implicit killed $rsi, implicit killed $rdx, implicit-def $rsp, implicit-def $ssp, implicit-def dead $eax
  ADJCALLSTACKUP64 0, 0, implicit-def dead $rsp, implicit-def dead $eflags, implicit-def dead $ssp, implicit $rsp, implicit $ssp
  RET 0

# End machine code for function __cxx_global_var_init.

# *** IR Dump Before Two-Address instruction pass ***:
# Machine code for function __cxx_global_var_init: NoPHIs, TracksLiveness

bb.0 (%ir-block.0):
  ADJCALLSTACKDOWN64 0, 0, 0, implicit-def dead $rsp, implicit-def dead $eflags, implicit-def dead $ssp, implicit $rsp, implicit $ssp
  %0:gr64 = MOV32ri64 @_ZStL8__ioinit
  $rdi = COPY %0:gr64
  CALL64pcrel32 @_ZNSt8ios_base4InitC1Ev, <regmask $bh $bl $bp $bph $bpl $bx $ebp $ebx $hbp $hbx $rbp $rbx $r12 $r13 $r14 $r15 $r12b $r13b $r14b $r15b $r12bh $r13bh $r14bh $r15bh $r12d $r13d $r14d $r15d $r12w $r13w $r14w $r15w $r12wh and 3 more...>, implicit $rsp, implicit $ssp, implicit killed $rdi, implicit-def $rsp, implicit-def $ssp
  ADJCALLSTACKUP64 0, 0, implicit-def dead $rsp, implicit-def dead $eflags, implicit-def dead $ssp, implicit $rsp, implicit $ssp
  ADJCALLSTACKDOWN64 0, 0, 0, implicit-def dead $rsp, implicit-def dead $eflags, implicit-def dead $ssp, implicit $rsp, implicit $ssp
  %1:gr64 = MOV32ri64 @_ZNSt8ios_base4InitD1Ev
  %2:gr64 = MOV32ri64 @__dso_handle
  $rdi = COPY killed %1:gr64
  $rsi = COPY killed %0:gr64
  $rdx = COPY killed %2:gr64
  CALL64pcrel32 @__cxa_atexit, <regmask $bh $bl $bp $bph $bpl $bx $ebp $ebx $hbp $hbx $rbp $rbx $r12 $r13 $r14 $r15 $r12b $r13b $r14b $r15b $r12bh $r13bh $r14bh $r15bh $r12d $r13d $r14d $r15d $r12w $r13w $r14w $r15w $r12wh and 3 more...>, implicit $rsp, implicit $ssp, implicit killed $rdi, implicit killed $rsi, implicit killed $rdx, implicit-def $rsp, implicit-def $ssp, implicit-def dead $eax
  ADJCALLSTACKUP64 0, 0, implicit-def dead $rsp, implicit-def dead $eflags, implicit-def dead $ssp, implicit $rsp, implicit $ssp
  RET 0

# End machine code for function __cxx_global_var_init.

# *** IR Dump After Two-Address instruction pass ***:
# Machine code for function __cxx_global_var_init: NoPHIs, TracksLiveness

bb.0 (%ir-block.0):
  ADJCALLSTACKDOWN64 0, 0, 0, implicit-def dead $rsp, implicit-def dead $eflags, implicit-def dead $ssp, implicit $rsp, implicit $ssp
  %0:gr64 = MOV32ri64 @_ZStL8__ioinit
  $rdi = COPY %0:gr64
  CALL64pcrel32 @_ZNSt8ios_base4InitC1Ev, <regmask $bh $bl $bp $bph $bpl $bx $ebp $ebx $hbp $hbx $rbp $rbx $r12 $r13 $r14 $r15 $r12b $r13b $r14b $r15b $r12bh $r13bh $r14bh $r15bh $r12d $r13d $r14d $r15d $r12w $r13w $r14w $r15w $r12wh and 3 more...>, implicit $rsp, implicit $ssp, implicit killed $rdi, implicit-def $rsp, implicit-def $ssp
  ADJCALLSTACKUP64 0, 0, implicit-def dead $rsp, implicit-def dead $eflags, implicit-def dead $ssp, implicit $rsp, implicit $ssp
  ADJCALLSTACKDOWN64 0, 0, 0, implicit-def dead $rsp, implicit-def dead $eflags, implicit-def dead $ssp, implicit $rsp, implicit $ssp
  %1:gr64 = MOV32ri64 @_ZNSt8ios_base4InitD1Ev
  %2:gr64 = MOV32ri64 @__dso_handle
  $rdi = COPY killed %1:gr64
  $rsi = COPY killed %0:gr64
  $rdx = COPY killed %2:gr64
  CALL64pcrel32 @__cxa_atexit, <regmask $bh $bl $bp $bph $bpl $bx $ebp $ebx $hbp $hbx $rbp $rbx $r12 $r13 $r14 $r15 $r12b $r13b $r14b $r15b $r12bh $r13bh $r14bh $r15bh $r12d $r13d $r14d $r15d $r12w $r13w $r14w $r15w $r12wh and 3 more...>, implicit $rsp, implicit $ssp, implicit killed $rdi, implicit killed $rsi, implicit killed $rdx, implicit-def $rsp, implicit-def $ssp, implicit-def dead $eax
  ADJCALLSTACKUP64 0, 0, implicit-def dead $rsp, implicit-def dead $eflags, implicit-def dead $ssp, implicit $rsp, implicit $ssp
  RET 0

# End machine code for function __cxx_global_var_init.

# *** IR Dump Before Slot index numbering ***:
# Machine code for function __cxx_global_var_init: NoPHIs, TracksLiveness

bb.0 (%ir-block.0):
  ADJCALLSTACKDOWN64 0, 0, 0, implicit-def dead $rsp, implicit-def dead $eflags, implicit-def dead $ssp, implicit $rsp, implicit $ssp
  %0:gr64 = MOV32ri64 @_ZStL8__ioinit
  $rdi = COPY %0:gr64
  CALL64pcrel32 @_ZNSt8ios_base4InitC1Ev, <regmask $bh $bl $bp $bph $bpl $bx $ebp $ebx $hbp $hbx $rbp $rbx $r12 $r13 $r14 $r15 $r12b $r13b $r14b $r15b $r12bh $r13bh $r14bh $r15bh $r12d $r13d $r14d $r15d $r12w $r13w $r14w $r15w $r12wh and 3 more...>, implicit $rsp, implicit $ssp, implicit killed $rdi, implicit-def $rsp, implicit-def $ssp
  ADJCALLSTACKUP64 0, 0, implicit-def dead $rsp, implicit-def dead $eflags, implicit-def dead $ssp, implicit $rsp, implicit $ssp
  ADJCALLSTACKDOWN64 0, 0, 0, implicit-def dead $rsp, implicit-def dead $eflags, implicit-def dead $ssp, implicit $rsp, implicit $ssp
  %1:gr64 = MOV32ri64 @_ZNSt8ios_base4InitD1Ev
  %2:gr64 = MOV32ri64 @__dso_handle
  $rdi = COPY killed %1:gr64
  $rsi = COPY killed %0:gr64
  $rdx = COPY killed %2:gr64
  CALL64pcrel32 @__cxa_atexit, <regmask $bh $bl $bp $bph $bpl $bx $ebp $ebx $hbp $hbx $rbp $rbx $r12 $r13 $r14 $r15 $r12b $r13b $r14b $r15b $r12bh $r13bh $r14bh $r15bh $r12d $r13d $r14d $r15d $r12w $r13w $r14w $r15w $r12wh and 3 more...>, implicit $rsp, implicit $ssp, implicit killed $rdi, implicit killed $rsi, implicit killed $rdx, implicit-def $rsp, implicit-def $ssp, implicit-def dead $eax
  ADJCALLSTACKUP64 0, 0, implicit-def dead $rsp, implicit-def dead $eflags, implicit-def dead $ssp, implicit $rsp, implicit $ssp
  RET 0

# End machine code for function __cxx_global_var_init.

# *** IR Dump After Slot index numbering ***:
# Machine code for function __cxx_global_var_init: NoPHIs, TracksLiveness

0B	bb.0 (%ir-block.0):
16B	  ADJCALLSTACKDOWN64 0, 0, 0, implicit-def dead $rsp, implicit-def dead $eflags, implicit-def dead $ssp, implicit $rsp, implicit $ssp
32B	  %0:gr64 = MOV32ri64 @_ZStL8__ioinit
48B	  $rdi = COPY %0:gr64
64B	  CALL64pcrel32 @_ZNSt8ios_base4InitC1Ev, <regmask $bh $bl $bp $bph $bpl $bx $ebp $ebx $hbp $hbx $rbp $rbx $r12 $r13 $r14 $r15 $r12b $r13b $r14b $r15b $r12bh $r13bh $r14bh $r15bh $r12d $r13d $r14d $r15d $r12w $r13w $r14w $r15w $r12wh and 3 more...>, implicit $rsp, implicit $ssp, implicit killed $rdi, implicit-def $rsp, implicit-def $ssp
80B	  ADJCALLSTACKUP64 0, 0, implicit-def dead $rsp, implicit-def dead $eflags, implicit-def dead $ssp, implicit $rsp, implicit $ssp
96B	  ADJCALLSTACKDOWN64 0, 0, 0, implicit-def dead $rsp, implicit-def dead $eflags, implicit-def dead $ssp, implicit $rsp, implicit $ssp
112B	  %1:gr64 = MOV32ri64 @_ZNSt8ios_base4InitD1Ev
128B	  %2:gr64 = MOV32ri64 @__dso_handle
144B	  $rdi = COPY killed %1:gr64
160B	  $rsi = COPY killed %0:gr64
176B	  $rdx = COPY killed %2:gr64
192B	  CALL64pcrel32 @__cxa_atexit, <regmask $bh $bl $bp $bph $bpl $bx $ebp $ebx $hbp $hbx $rbp $rbx $r12 $r13 $r14 $r15 $r12b $r13b $r14b $r15b $r12bh $r13bh $r14bh $r15bh $r12d $r13d $r14d $r15d $r12w $r13w $r14w $r15w $r12wh and 3 more...>, implicit $rsp, implicit $ssp, implicit killed $rdi, implicit killed $rsi, implicit killed $rdx, implicit-def $rsp, implicit-def $ssp, implicit-def dead $eax
208B	  ADJCALLSTACKUP64 0, 0, implicit-def dead $rsp, implicit-def dead $eflags, implicit-def dead $ssp, implicit $rsp, implicit $ssp
224B	  RET 0

# End machine code for function __cxx_global_var_init.

# *** IR Dump Before Live Interval Analysis ***:
# Machine code for function __cxx_global_var_init: NoPHIs, TracksLiveness

0B	bb.0 (%ir-block.0):
16B	  ADJCALLSTACKDOWN64 0, 0, 0, implicit-def dead $rsp, implicit-def dead $eflags, implicit-def dead $ssp, implicit $rsp, implicit $ssp
32B	  %0:gr64 = MOV32ri64 @_ZStL8__ioinit
48B	  $rdi = COPY %0:gr64
64B	  CALL64pcrel32 @_ZNSt8ios_base4InitC1Ev, <regmask $bh $bl $bp $bph $bpl $bx $ebp $ebx $hbp $hbx $rbp $rbx $r12 $r13 $r14 $r15 $r12b $r13b $r14b $r15b $r12bh $r13bh $r14bh $r15bh $r12d $r13d $r14d $r15d $r12w $r13w $r14w $r15w $r12wh and 3 more...>, implicit $rsp, implicit $ssp, implicit killed $rdi, implicit-def $rsp, implicit-def $ssp
80B	  ADJCALLSTACKUP64 0, 0, implicit-def dead $rsp, implicit-def dead $eflags, implicit-def dead $ssp, implicit $rsp, implicit $ssp
96B	  ADJCALLSTACKDOWN64 0, 0, 0, implicit-def dead $rsp, implicit-def dead $eflags, implicit-def dead $ssp, implicit $rsp, implicit $ssp
112B	  %1:gr64 = MOV32ri64 @_ZNSt8ios_base4InitD1Ev
128B	  %2:gr64 = MOV32ri64 @__dso_handle
144B	  $rdi = COPY killed %1:gr64
160B	  $rsi = COPY killed %0:gr64
176B	  $rdx = COPY killed %2:gr64
192B	  CALL64pcrel32 @__cxa_atexit, <regmask $bh $bl $bp $bph $bpl $bx $ebp $ebx $hbp $hbx $rbp $rbx $r12 $r13 $r14 $r15 $r12b $r13b $r14b $r15b $r12bh $r13bh $r14bh $r15bh $r12d $r13d $r14d $r15d $r12w $r13w $r14w $r15w $r12wh and 3 more...>, implicit $rsp, implicit $ssp, implicit killed $rdi, implicit killed $rsi, implicit killed $rdx, implicit-def $rsp, implicit-def $ssp, implicit-def dead $eax
208B	  ADJCALLSTACKUP64 0, 0, implicit-def dead $rsp, implicit-def dead $eflags, implicit-def dead $ssp, implicit $rsp, implicit $ssp
224B	  RET 0

# End machine code for function __cxx_global_var_init.

# *** IR Dump After Live Interval Analysis ***:
# Machine code for function __cxx_global_var_init: NoPHIs, TracksLiveness

0B	bb.0 (%ir-block.0):
16B	  ADJCALLSTACKDOWN64 0, 0, 0, implicit-def dead $rsp, implicit-def dead $eflags, implicit-def dead $ssp, implicit $rsp, implicit $ssp
32B	  %0:gr64 = MOV32ri64 @_ZStL8__ioinit
48B	  $rdi = COPY %0:gr64
64B	  CALL64pcrel32 @_ZNSt8ios_base4InitC1Ev, <regmask $bh $bl $bp $bph $bpl $bx $ebp $ebx $hbp $hbx $rbp $rbx $r12 $r13 $r14 $r15 $r12b $r13b $r14b $r15b $r12bh $r13bh $r14bh $r15bh $r12d $r13d $r14d $r15d $r12w $r13w $r14w $r15w $r12wh and 3 more...>, implicit $rsp, implicit $ssp, implicit killed $rdi, implicit-def $rsp, implicit-def $ssp
80B	  ADJCALLSTACKUP64 0, 0, implicit-def dead $rsp, implicit-def dead $eflags, implicit-def dead $ssp, implicit $rsp, implicit $ssp
96B	  ADJCALLSTACKDOWN64 0, 0, 0, implicit-def dead $rsp, implicit-def dead $eflags, implicit-def dead $ssp, implicit $rsp, implicit $ssp
112B	  %1:gr64 = MOV32ri64 @_ZNSt8ios_base4InitD1Ev
128B	  %2:gr64 = MOV32ri64 @__dso_handle
144B	  $rdi = COPY %1:gr64
160B	  $rsi = COPY %0:gr64
176B	  $rdx = COPY %2:gr64
192B	  CALL64pcrel32 @__cxa_atexit, <regmask $bh $bl $bp $bph $bpl $bx $ebp $ebx $hbp $hbx $rbp $rbx $r12 $r13 $r14 $r15 $r12b $r13b $r14b $r15b $r12bh $r13bh $r14bh $r15bh $r12d $r13d $r14d $r15d $r12w $r13w $r14w $r15w $r12wh and 3 more...>, implicit $rsp, implicit $ssp, implicit killed $rdi, implicit killed $rsi, implicit killed $rdx, implicit-def $rsp, implicit-def $ssp, implicit-def dead $eax
208B	  ADJCALLSTACKUP64 0, 0, implicit-def dead $rsp, implicit-def dead $eflags, implicit-def dead $ssp, implicit $rsp, implicit $ssp
224B	  RET 0

# End machine code for function __cxx_global_var_init.

# *** IR Dump Before Simple Register Coalescing ***:
# Machine code for function __cxx_global_var_init: NoPHIs, TracksLiveness

0B	bb.0 (%ir-block.0):
16B	  ADJCALLSTACKDOWN64 0, 0, 0, implicit-def dead $rsp, implicit-def dead $eflags, implicit-def dead $ssp, implicit $rsp, implicit $ssp
32B	  %0:gr64 = MOV32ri64 @_ZStL8__ioinit
48B	  $rdi = COPY %0:gr64
64B	  CALL64pcrel32 @_ZNSt8ios_base4InitC1Ev, <regmask $bh $bl $bp $bph $bpl $bx $ebp $ebx $hbp $hbx $rbp $rbx $r12 $r13 $r14 $r15 $r12b $r13b $r14b $r15b $r12bh $r13bh $r14bh $r15bh $r12d $r13d $r14d $r15d $r12w $r13w $r14w $r15w $r12wh and 3 more...>, implicit $rsp, implicit $ssp, implicit killed $rdi, implicit-def $rsp, implicit-def $ssp
80B	  ADJCALLSTACKUP64 0, 0, implicit-def dead $rsp, implicit-def dead $eflags, implicit-def dead $ssp, implicit $rsp, implicit $ssp
96B	  ADJCALLSTACKDOWN64 0, 0, 0, implicit-def dead $rsp, implicit-def dead $eflags, implicit-def dead $ssp, implicit $rsp, implicit $ssp
112B	  %1:gr64 = MOV32ri64 @_ZNSt8ios_base4InitD1Ev
128B	  %2:gr64 = MOV32ri64 @__dso_handle
144B	  $rdi = COPY %1:gr64
160B	  $rsi = COPY %0:gr64
176B	  $rdx = COPY %2:gr64
192B	  CALL64pcrel32 @__cxa_atexit, <regmask $bh $bl $bp $bph $bpl $bx $ebp $ebx $hbp $hbx $rbp $rbx $r12 $r13 $r14 $r15 $r12b $r13b $r14b $r15b $r12bh $r13bh $r14bh $r15bh $r12d $r13d $r14d $r15d $r12w $r13w $r14w $r15w $r12wh and 3 more...>, implicit $rsp, implicit $ssp, implicit killed $rdi, implicit killed $rsi, implicit killed $rdx, implicit-def $rsp, implicit-def $ssp, implicit-def dead $eax
208B	  ADJCALLSTACKUP64 0, 0, implicit-def dead $rsp, implicit-def dead $eflags, implicit-def dead $ssp, implicit $rsp, implicit $ssp
224B	  RET 0

# End machine code for function __cxx_global_var_init.

# *** IR Dump After Simple Register Coalescing ***:
# Machine code for function __cxx_global_var_init: NoPHIs, TracksLiveness

0B	bb.0 (%ir-block.0):
16B	  ADJCALLSTACKDOWN64 0, 0, 0, implicit-def dead $rsp, implicit-def dead $eflags, implicit-def dead $ssp, implicit $rsp, implicit $ssp
48B	  $rdi = MOV32ri64 @_ZStL8__ioinit
64B	  CALL64pcrel32 @_ZNSt8ios_base4InitC1Ev, <regmask $bh $bl $bp $bph $bpl $bx $ebp $ebx $hbp $hbx $rbp $rbx $r12 $r13 $r14 $r15 $r12b $r13b $r14b $r15b $r12bh $r13bh $r14bh $r15bh $r12d $r13d $r14d $r15d $r12w $r13w $r14w $r15w $r12wh and 3 more...>, implicit $rsp, implicit $ssp, implicit killed $rdi, implicit-def $rsp, implicit-def $ssp
80B	  ADJCALLSTACKUP64 0, 0, implicit-def dead $rsp, implicit-def dead $eflags, implicit-def dead $ssp, implicit $rsp, implicit $ssp
96B	  ADJCALLSTACKDOWN64 0, 0, 0, implicit-def dead $rsp, implicit-def dead $eflags, implicit-def dead $ssp, implicit $rsp, implicit $ssp
144B	  $rdi = MOV32ri64 @_ZNSt8ios_base4InitD1Ev
160B	  $rsi = MOV32ri64 @_ZStL8__ioinit
176B	  $rdx = MOV32ri64 @__dso_handle
192B	  CALL64pcrel32 @__cxa_atexit, <regmask $bh $bl $bp $bph $bpl $bx $ebp $ebx $hbp $hbx $rbp $rbx $r12 $r13 $r14 $r15 $r12b $r13b $r14b $r15b $r12bh $r13bh $r14bh $r15bh $r12d $r13d $r14d $r15d $r12w $r13w $r14w $r15w $r12wh and 3 more...>, implicit $rsp, implicit $ssp, implicit killed $rdi, implicit killed $rsi, implicit killed $rdx, implicit-def $rsp, implicit-def $ssp, implicit-def dead $eax
208B	  ADJCALLSTACKUP64 0, 0, implicit-def dead $rsp, implicit-def dead $eflags, implicit-def dead $ssp, implicit $rsp, implicit $ssp
224B	  RET 0

# End machine code for function __cxx_global_var_init.

# *** IR Dump Before Rename Disconnected Subregister Components ***:
# Machine code for function __cxx_global_var_init: NoPHIs, TracksLiveness

0B	bb.0 (%ir-block.0):
16B	  ADJCALLSTACKDOWN64 0, 0, 0, implicit-def dead $rsp, implicit-def dead $eflags, implicit-def dead $ssp, implicit $rsp, implicit $ssp
48B	  $rdi = MOV32ri64 @_ZStL8__ioinit
64B	  CALL64pcrel32 @_ZNSt8ios_base4InitC1Ev, <regmask $bh $bl $bp $bph $bpl $bx $ebp $ebx $hbp $hbx $rbp $rbx $r12 $r13 $r14 $r15 $r12b $r13b $r14b $r15b $r12bh $r13bh $r14bh $r15bh $r12d $r13d $r14d $r15d $r12w $r13w $r14w $r15w $r12wh and 3 more...>, implicit $rsp, implicit $ssp, implicit killed $rdi, implicit-def $rsp, implicit-def $ssp
80B	  ADJCALLSTACKUP64 0, 0, implicit-def dead $rsp, implicit-def dead $eflags, implicit-def dead $ssp, implicit $rsp, implicit $ssp
96B	  ADJCALLSTACKDOWN64 0, 0, 0, implicit-def dead $rsp, implicit-def dead $eflags, implicit-def dead $ssp, implicit $rsp, implicit $ssp
144B	  $rdi = MOV32ri64 @_ZNSt8ios_base4InitD1Ev
160B	  $rsi = MOV32ri64 @_ZStL8__ioinit
176B	  $rdx = MOV32ri64 @__dso_handle
192B	  CALL64pcrel32 @__cxa_atexit, <regmask $bh $bl $bp $bph $bpl $bx $ebp $ebx $hbp $hbx $rbp $rbx $r12 $r13 $r14 $r15 $r12b $r13b $r14b $r15b $r12bh $r13bh $r14bh $r15bh $r12d $r13d $r14d $r15d $r12w $r13w $r14w $r15w $r12wh and 3 more...>, implicit $rsp, implicit $ssp, implicit killed $rdi, implicit killed $rsi, implicit killed $rdx, implicit-def $rsp, implicit-def $ssp, implicit-def dead $eax
208B	  ADJCALLSTACKUP64 0, 0, implicit-def dead $rsp, implicit-def dead $eflags, implicit-def dead $ssp, implicit $rsp, implicit $ssp
224B	  RET 0

# End machine code for function __cxx_global_var_init.

# *** IR Dump After Rename Disconnected Subregister Components ***:
# Machine code for function __cxx_global_var_init: NoPHIs, TracksLiveness

0B	bb.0 (%ir-block.0):
16B	  ADJCALLSTACKDOWN64 0, 0, 0, implicit-def dead $rsp, implicit-def dead $eflags, implicit-def dead $ssp, implicit $rsp, implicit $ssp
48B	  $rdi = MOV32ri64 @_ZStL8__ioinit
64B	  CALL64pcrel32 @_ZNSt8ios_base4InitC1Ev, <regmask $bh $bl $bp $bph $bpl $bx $ebp $ebx $hbp $hbx $rbp $rbx $r12 $r13 $r14 $r15 $r12b $r13b $r14b $r15b $r12bh $r13bh $r14bh $r15bh $r12d $r13d $r14d $r15d $r12w $r13w $r14w $r15w $r12wh and 3 more...>, implicit $rsp, implicit $ssp, implicit killed $rdi, implicit-def $rsp, implicit-def $ssp
80B	  ADJCALLSTACKUP64 0, 0, implicit-def dead $rsp, implicit-def dead $eflags, implicit-def dead $ssp, implicit $rsp, implicit $ssp
96B	  ADJCALLSTACKDOWN64 0, 0, 0, implicit-def dead $rsp, implicit-def dead $eflags, implicit-def dead $ssp, implicit $rsp, implicit $ssp
144B	  $rdi = MOV32ri64 @_ZNSt8ios_base4InitD1Ev
160B	  $rsi = MOV32ri64 @_ZStL8__ioinit
176B	  $rdx = MOV32ri64 @__dso_handle
192B	  CALL64pcrel32 @__cxa_atexit, <regmask $bh $bl $bp $bph $bpl $bx $ebp $ebx $hbp $hbx $rbp $rbx $r12 $r13 $r14 $r15 $r12b $r13b $r14b $r15b $r12bh $r13bh $r14bh $r15bh $r12d $r13d $r14d $r15d $r12w $r13w $r14w $r15w $r12wh and 3 more...>, implicit $rsp, implicit $ssp, implicit killed $rdi, implicit killed $rsi, implicit killed $rdx, implicit-def $rsp, implicit-def $ssp, implicit-def dead $eax
208B	  ADJCALLSTACKUP64 0, 0, implicit-def dead $rsp, implicit-def dead $eflags, implicit-def dead $ssp, implicit $rsp, implicit $ssp
224B	  RET 0

# End machine code for function __cxx_global_var_init.

# *** IR Dump Before Machine Instruction Scheduler ***:
# Machine code for function __cxx_global_var_init: NoPHIs, TracksLiveness

0B	bb.0 (%ir-block.0):
16B	  ADJCALLSTACKDOWN64 0, 0, 0, implicit-def dead $rsp, implicit-def dead $eflags, implicit-def dead $ssp, implicit $rsp, implicit $ssp
48B	  $rdi = MOV32ri64 @_ZStL8__ioinit
64B	  CALL64pcrel32 @_ZNSt8ios_base4InitC1Ev, <regmask $bh $bl $bp $bph $bpl $bx $ebp $ebx $hbp $hbx $rbp $rbx $r12 $r13 $r14 $r15 $r12b $r13b $r14b $r15b $r12bh $r13bh $r14bh $r15bh $r12d $r13d $r14d $r15d $r12w $r13w $r14w $r15w $r12wh and 3 more...>, implicit $rsp, implicit $ssp, implicit killed $rdi, implicit-def $rsp, implicit-def $ssp
80B	  ADJCALLSTACKUP64 0, 0, implicit-def dead $rsp, implicit-def dead $eflags, implicit-def dead $ssp, implicit $rsp, implicit $ssp
96B	  ADJCALLSTACKDOWN64 0, 0, 0, implicit-def dead $rsp, implicit-def dead $eflags, implicit-def dead $ssp, implicit $rsp, implicit $ssp
144B	  $rdi = MOV32ri64 @_ZNSt8ios_base4InitD1Ev
160B	  $rsi = MOV32ri64 @_ZStL8__ioinit
176B	  $rdx = MOV32ri64 @__dso_handle
192B	  CALL64pcrel32 @__cxa_atexit, <regmask $bh $bl $bp $bph $bpl $bx $ebp $ebx $hbp $hbx $rbp $rbx $r12 $r13 $r14 $r15 $r12b $r13b $r14b $r15b $r12bh $r13bh $r14bh $r15bh $r12d $r13d $r14d $r15d $r12w $r13w $r14w $r15w $r12wh and 3 more...>, implicit $rsp, implicit $ssp, implicit killed $rdi, implicit killed $rsi, implicit killed $rdx, implicit-def $rsp, implicit-def $ssp, implicit-def dead $eax
208B	  ADJCALLSTACKUP64 0, 0, implicit-def dead $rsp, implicit-def dead $eflags, implicit-def dead $ssp, implicit $rsp, implicit $ssp
224B	  RET 0

# End machine code for function __cxx_global_var_init.

# *** IR Dump After Machine Instruction Scheduler ***:
# Machine code for function __cxx_global_var_init: NoPHIs, TracksLiveness

0B	bb.0 (%ir-block.0):
16B	  ADJCALLSTACKDOWN64 0, 0, 0, implicit-def dead $rsp, implicit-def dead $eflags, implicit-def dead $ssp, implicit $rsp, implicit $ssp
48B	  $rdi = MOV32ri64 @_ZStL8__ioinit
64B	  CALL64pcrel32 @_ZNSt8ios_base4InitC1Ev, <regmask $bh $bl $bp $bph $bpl $bx $ebp $ebx $hbp $hbx $rbp $rbx $r12 $r13 $r14 $r15 $r12b $r13b $r14b $r15b $r12bh $r13bh $r14bh $r15bh $r12d $r13d $r14d $r15d $r12w $r13w $r14w $r15w $r12wh and 3 more...>, implicit $rsp, implicit $ssp, implicit killed $rdi, implicit-def $rsp, implicit-def $ssp
80B	  ADJCALLSTACKUP64 0, 0, implicit-def dead $rsp, implicit-def dead $eflags, implicit-def dead $ssp, implicit $rsp, implicit $ssp
96B	  ADJCALLSTACKDOWN64 0, 0, 0, implicit-def dead $rsp, implicit-def dead $eflags, implicit-def dead $ssp, implicit $rsp, implicit $ssp
144B	  $rdi = MOV32ri64 @_ZNSt8ios_base4InitD1Ev
160B	  $rsi = MOV32ri64 @_ZStL8__ioinit
176B	  $rdx = MOV32ri64 @__dso_handle
192B	  CALL64pcrel32 @__cxa_atexit, <regmask $bh $bl $bp $bph $bpl $bx $ebp $ebx $hbp $hbx $rbp $rbx $r12 $r13 $r14 $r15 $r12b $r13b $r14b $r15b $r12bh $r13bh $r14bh $r15bh $r12d $r13d $r14d $r15d $r12w $r13w $r14w $r15w $r12wh and 3 more...>, implicit $rsp, implicit $ssp, implicit killed $rdi, implicit killed $rsi, implicit killed $rdx, implicit-def $rsp, implicit-def $ssp, implicit-def dead $eax
208B	  ADJCALLSTACKUP64 0, 0, implicit-def dead $rsp, implicit-def dead $eflags, implicit-def dead $ssp, implicit $rsp, implicit $ssp
224B	  RET 0

# End machine code for function __cxx_global_var_init.

# *** IR Dump Before Debug Variable Analysis ***:
# Machine code for function __cxx_global_var_init: NoPHIs, TracksLiveness

0B	bb.0 (%ir-block.0):
16B	  ADJCALLSTACKDOWN64 0, 0, 0, implicit-def dead $rsp, implicit-def dead $eflags, implicit-def dead $ssp, implicit $rsp, implicit $ssp
48B	  $rdi = MOV32ri64 @_ZStL8__ioinit
64B	  CALL64pcrel32 @_ZNSt8ios_base4InitC1Ev, <regmask $bh $bl $bp $bph $bpl $bx $ebp $ebx $hbp $hbx $rbp $rbx $r12 $r13 $r14 $r15 $r12b $r13b $r14b $r15b $r12bh $r13bh $r14bh $r15bh $r12d $r13d $r14d $r15d $r12w $r13w $r14w $r15w $r12wh and 3 more...>, implicit $rsp, implicit $ssp, implicit killed $rdi, implicit-def $rsp, implicit-def $ssp
80B	  ADJCALLSTACKUP64 0, 0, implicit-def dead $rsp, implicit-def dead $eflags, implicit-def dead $ssp, implicit $rsp, implicit $ssp
96B	  ADJCALLSTACKDOWN64 0, 0, 0, implicit-def dead $rsp, implicit-def dead $eflags, implicit-def dead $ssp, implicit $rsp, implicit $ssp
144B	  $rdi = MOV32ri64 @_ZNSt8ios_base4InitD1Ev
160B	  $rsi = MOV32ri64 @_ZStL8__ioinit
176B	  $rdx = MOV32ri64 @__dso_handle
192B	  CALL64pcrel32 @__cxa_atexit, <regmask $bh $bl $bp $bph $bpl $bx $ebp $ebx $hbp $hbx $rbp $rbx $r12 $r13 $r14 $r15 $r12b $r13b $r14b $r15b $r12bh $r13bh $r14bh $r15bh $r12d $r13d $r14d $r15d $r12w $r13w $r14w $r15w $r12wh and 3 more...>, implicit $rsp, implicit $ssp, implicit killed $rdi, implicit killed $rsi, implicit killed $rdx, implicit-def $rsp, implicit-def $ssp, implicit-def dead $eax
208B	  ADJCALLSTACKUP64 0, 0, implicit-def dead $rsp, implicit-def dead $eflags, implicit-def dead $ssp, implicit $rsp, implicit $ssp
224B	  RET 0

# End machine code for function __cxx_global_var_init.

# *** IR Dump After Debug Variable Analysis ***:
# Machine code for function __cxx_global_var_init: NoPHIs, TracksLiveness

0B	bb.0 (%ir-block.0):
16B	  ADJCALLSTACKDOWN64 0, 0, 0, implicit-def dead $rsp, implicit-def dead $eflags, implicit-def dead $ssp, implicit $rsp, implicit $ssp
48B	  $rdi = MOV32ri64 @_ZStL8__ioinit
64B	  CALL64pcrel32 @_ZNSt8ios_base4InitC1Ev, <regmask $bh $bl $bp $bph $bpl $bx $ebp $ebx $hbp $hbx $rbp $rbx $r12 $r13 $r14 $r15 $r12b $r13b $r14b $r15b $r12bh $r13bh $r14bh $r15bh $r12d $r13d $r14d $r15d $r12w $r13w $r14w $r15w $r12wh and 3 more...>, implicit $rsp, implicit $ssp, implicit killed $rdi, implicit-def $rsp, implicit-def $ssp
80B	  ADJCALLSTACKUP64 0, 0, implicit-def dead $rsp, implicit-def dead $eflags, implicit-def dead $ssp, implicit $rsp, implicit $ssp
96B	  ADJCALLSTACKDOWN64 0, 0, 0, implicit-def dead $rsp, implicit-def dead $eflags, implicit-def dead $ssp, implicit $rsp, implicit $ssp
144B	  $rdi = MOV32ri64 @_ZNSt8ios_base4InitD1Ev
160B	  $rsi = MOV32ri64 @_ZStL8__ioinit
176B	  $rdx = MOV32ri64 @__dso_handle
192B	  CALL64pcrel32 @__cxa_atexit, <regmask $bh $bl $bp $bph $bpl $bx $ebp $ebx $hbp $hbx $rbp $rbx $r12 $r13 $r14 $r15 $r12b $r13b $r14b $r15b $r12bh $r13bh $r14bh $r15bh $r12d $r13d $r14d $r15d $r12w $r13w $r14w $r15w $r12wh and 3 more...>, implicit $rsp, implicit $ssp, implicit killed $rdi, implicit killed $rsi, implicit killed $rdx, implicit-def $rsp, implicit-def $ssp, implicit-def dead $eax
208B	  ADJCALLSTACKUP64 0, 0, implicit-def dead $rsp, implicit-def dead $eflags, implicit-def dead $ssp, implicit $rsp, implicit $ssp
224B	  RET 0

# End machine code for function __cxx_global_var_init.

# *** IR Dump Before Live Stack Slot Analysis ***:
# Machine code for function __cxx_global_var_init: NoPHIs, TracksLiveness

0B	bb.0 (%ir-block.0):
16B	  ADJCALLSTACKDOWN64 0, 0, 0, implicit-def dead $rsp, implicit-def dead $eflags, implicit-def dead $ssp, implicit $rsp, implicit $ssp
48B	  $rdi = MOV32ri64 @_ZStL8__ioinit
64B	  CALL64pcrel32 @_ZNSt8ios_base4InitC1Ev, <regmask $bh $bl $bp $bph $bpl $bx $ebp $ebx $hbp $hbx $rbp $rbx $r12 $r13 $r14 $r15 $r12b $r13b $r14b $r15b $r12bh $r13bh $r14bh $r15bh $r12d $r13d $r14d $r15d $r12w $r13w $r14w $r15w $r12wh and 3 more...>, implicit $rsp, implicit $ssp, implicit killed $rdi, implicit-def $rsp, implicit-def $ssp
80B	  ADJCALLSTACKUP64 0, 0, implicit-def dead $rsp, implicit-def dead $eflags, implicit-def dead $ssp, implicit $rsp, implicit $ssp
96B	  ADJCALLSTACKDOWN64 0, 0, 0, implicit-def dead $rsp, implicit-def dead $eflags, implicit-def dead $ssp, implicit $rsp, implicit $ssp
144B	  $rdi = MOV32ri64 @_ZNSt8ios_base4InitD1Ev
160B	  $rsi = MOV32ri64 @_ZStL8__ioinit
176B	  $rdx = MOV32ri64 @__dso_handle
192B	  CALL64pcrel32 @__cxa_atexit, <regmask $bh $bl $bp $bph $bpl $bx $ebp $ebx $hbp $hbx $rbp $rbx $r12 $r13 $r14 $r15 $r12b $r13b $r14b $r15b $r12bh $r13bh $r14bh $r15bh $r12d $r13d $r14d $r15d $r12w $r13w $r14w $r15w $r12wh and 3 more...>, implicit $rsp, implicit $ssp, implicit killed $rdi, implicit killed $rsi, implicit killed $rdx, implicit-def $rsp, implicit-def $ssp, implicit-def dead $eax
208B	  ADJCALLSTACKUP64 0, 0, implicit-def dead $rsp, implicit-def dead $eflags, implicit-def dead $ssp, implicit $rsp, implicit $ssp
224B	  RET 0

# End machine code for function __cxx_global_var_init.

# *** IR Dump After Live Stack Slot Analysis ***:
# Machine code for function __cxx_global_var_init: NoPHIs, TracksLiveness

0B	bb.0 (%ir-block.0):
16B	  ADJCALLSTACKDOWN64 0, 0, 0, implicit-def dead $rsp, implicit-def dead $eflags, implicit-def dead $ssp, implicit $rsp, implicit $ssp
48B	  $rdi = MOV32ri64 @_ZStL8__ioinit
64B	  CALL64pcrel32 @_ZNSt8ios_base4InitC1Ev, <regmask $bh $bl $bp $bph $bpl $bx $ebp $ebx $hbp $hbx $rbp $rbx $r12 $r13 $r14 $r15 $r12b $r13b $r14b $r15b $r12bh $r13bh $r14bh $r15bh $r12d $r13d $r14d $r15d $r12w $r13w $r14w $r15w $r12wh and 3 more...>, implicit $rsp, implicit $ssp, implicit killed $rdi, implicit-def $rsp, implicit-def $ssp
80B	  ADJCALLSTACKUP64 0, 0, implicit-def dead $rsp, implicit-def dead $eflags, implicit-def dead $ssp, implicit $rsp, implicit $ssp
96B	  ADJCALLSTACKDOWN64 0, 0, 0, implicit-def dead $rsp, implicit-def dead $eflags, implicit-def dead $ssp, implicit $rsp, implicit $ssp
144B	  $rdi = MOV32ri64 @_ZNSt8ios_base4InitD1Ev
160B	  $rsi = MOV32ri64 @_ZStL8__ioinit
176B	  $rdx = MOV32ri64 @__dso_handle
192B	  CALL64pcrel32 @__cxa_atexit, <regmask $bh $bl $bp $bph $bpl $bx $ebp $ebx $hbp $hbx $rbp $rbx $r12 $r13 $r14 $r15 $r12b $r13b $r14b $r15b $r12bh $r13bh $r14bh $r15bh $r12d $r13d $r14d $r15d $r12w $r13w $r14w $r15w $r12wh and 3 more...>, implicit $rsp, implicit $ssp, implicit killed $rdi, implicit killed $rsi, implicit killed $rdx, implicit-def $rsp, implicit-def $ssp, implicit-def dead $eax
208B	  ADJCALLSTACKUP64 0, 0, implicit-def dead $rsp, implicit-def dead $eflags, implicit-def dead $ssp, implicit $rsp, implicit $ssp
224B	  RET 0

# End machine code for function __cxx_global_var_init.

# *** IR Dump Before Virtual Register Map ***:
# Machine code for function __cxx_global_var_init: NoPHIs, TracksLiveness

0B	bb.0 (%ir-block.0):
16B	  ADJCALLSTACKDOWN64 0, 0, 0, implicit-def dead $rsp, implicit-def dead $eflags, implicit-def dead $ssp, implicit $rsp, implicit $ssp
48B	  $rdi = MOV32ri64 @_ZStL8__ioinit
64B	  CALL64pcrel32 @_ZNSt8ios_base4InitC1Ev, <regmask $bh $bl $bp $bph $bpl $bx $ebp $ebx $hbp $hbx $rbp $rbx $r12 $r13 $r14 $r15 $r12b $r13b $r14b $r15b $r12bh $r13bh $r14bh $r15bh $r12d $r13d $r14d $r15d $r12w $r13w $r14w $r15w $r12wh and 3 more...>, implicit $rsp, implicit $ssp, implicit killed $rdi, implicit-def $rsp, implicit-def $ssp
80B	  ADJCALLSTACKUP64 0, 0, implicit-def dead $rsp, implicit-def dead $eflags, implicit-def dead $ssp, implicit $rsp, implicit $ssp
96B	  ADJCALLSTACKDOWN64 0, 0, 0, implicit-def dead $rsp, implicit-def dead $eflags, implicit-def dead $ssp, implicit $rsp, implicit $ssp
144B	  $rdi = MOV32ri64 @_ZNSt8ios_base4InitD1Ev
160B	  $rsi = MOV32ri64 @_ZStL8__ioinit
176B	  $rdx = MOV32ri64 @__dso_handle
192B	  CALL64pcrel32 @__cxa_atexit, <regmask $bh $bl $bp $bph $bpl $bx $ebp $ebx $hbp $hbx $rbp $rbx $r12 $r13 $r14 $r15 $r12b $r13b $r14b $r15b $r12bh $r13bh $r14bh $r15bh $r12d $r13d $r14d $r15d $r12w $r13w $r14w $r15w $r12wh and 3 more...>, implicit $rsp, implicit $ssp, implicit killed $rdi, implicit killed $rsi, implicit killed $rdx, implicit-def $rsp, implicit-def $ssp, implicit-def dead $eax
208B	  ADJCALLSTACKUP64 0, 0, implicit-def dead $rsp, implicit-def dead $eflags, implicit-def dead $ssp, implicit $rsp, implicit $ssp
224B	  RET 0

# End machine code for function __cxx_global_var_init.

# *** IR Dump After Virtual Register Map ***:
# Machine code for function __cxx_global_var_init: NoPHIs, TracksLiveness

0B	bb.0 (%ir-block.0):
16B	  ADJCALLSTACKDOWN64 0, 0, 0, implicit-def dead $rsp, implicit-def dead $eflags, implicit-def dead $ssp, implicit $rsp, implicit $ssp
48B	  $rdi = MOV32ri64 @_ZStL8__ioinit
64B	  CALL64pcrel32 @_ZNSt8ios_base4InitC1Ev, <regmask $bh $bl $bp $bph $bpl $bx $ebp $ebx $hbp $hbx $rbp $rbx $r12 $r13 $r14 $r15 $r12b $r13b $r14b $r15b $r12bh $r13bh $r14bh $r15bh $r12d $r13d $r14d $r15d $r12w $r13w $r14w $r15w $r12wh and 3 more...>, implicit $rsp, implicit $ssp, implicit killed $rdi, implicit-def $rsp, implicit-def $ssp
80B	  ADJCALLSTACKUP64 0, 0, implicit-def dead $rsp, implicit-def dead $eflags, implicit-def dead $ssp, implicit $rsp, implicit $ssp
96B	  ADJCALLSTACKDOWN64 0, 0, 0, implicit-def dead $rsp, implicit-def dead $eflags, implicit-def dead $ssp, implicit $rsp, implicit $ssp
144B	  $rdi = MOV32ri64 @_ZNSt8ios_base4InitD1Ev
160B	  $rsi = MOV32ri64 @_ZStL8__ioinit
176B	  $rdx = MOV32ri64 @__dso_handle
192B	  CALL64pcrel32 @__cxa_atexit, <regmask $bh $bl $bp $bph $bpl $bx $ebp $ebx $hbp $hbx $rbp $rbx $r12 $r13 $r14 $r15 $r12b $r13b $r14b $r15b $r12bh $r13bh $r14bh $r15bh $r12d $r13d $r14d $r15d $r12w $r13w $r14w $r15w $r12wh and 3 more...>, implicit $rsp, implicit $ssp, implicit killed $rdi, implicit killed $rsi, implicit killed $rdx, implicit-def $rsp, implicit-def $ssp, implicit-def dead $eax
208B	  ADJCALLSTACKUP64 0, 0, implicit-def dead $rsp, implicit-def dead $eflags, implicit-def dead $ssp, implicit $rsp, implicit $ssp
224B	  RET 0

# End machine code for function __cxx_global_var_init.

# *** IR Dump Before Live Register Matrix ***:
# Machine code for function __cxx_global_var_init: NoPHIs, TracksLiveness

0B	bb.0 (%ir-block.0):
16B	  ADJCALLSTACKDOWN64 0, 0, 0, implicit-def dead $rsp, implicit-def dead $eflags, implicit-def dead $ssp, implicit $rsp, implicit $ssp
48B	  $rdi = MOV32ri64 @_ZStL8__ioinit
64B	  CALL64pcrel32 @_ZNSt8ios_base4InitC1Ev, <regmask $bh $bl $bp $bph $bpl $bx $ebp $ebx $hbp $hbx $rbp $rbx $r12 $r13 $r14 $r15 $r12b $r13b $r14b $r15b $r12bh $r13bh $r14bh $r15bh $r12d $r13d $r14d $r15d $r12w $r13w $r14w $r15w $r12wh and 3 more...>, implicit $rsp, implicit $ssp, implicit killed $rdi, implicit-def $rsp, implicit-def $ssp
80B	  ADJCALLSTACKUP64 0, 0, implicit-def dead $rsp, implicit-def dead $eflags, implicit-def dead $ssp, implicit $rsp, implicit $ssp
96B	  ADJCALLSTACKDOWN64 0, 0, 0, implicit-def dead $rsp, implicit-def dead $eflags, implicit-def dead $ssp, implicit $rsp, implicit $ssp
144B	  $rdi = MOV32ri64 @_ZNSt8ios_base4InitD1Ev
160B	  $rsi = MOV32ri64 @_ZStL8__ioinit
176B	  $rdx = MOV32ri64 @__dso_handle
192B	  CALL64pcrel32 @__cxa_atexit, <regmask $bh $bl $bp $bph $bpl $bx $ebp $ebx $hbp $hbx $rbp $rbx $r12 $r13 $r14 $r15 $r12b $r13b $r14b $r15b $r12bh $r13bh $r14bh $r15bh $r12d $r13d $r14d $r15d $r12w $r13w $r14w $r15w $r12wh and 3 more...>, implicit $rsp, implicit $ssp, implicit killed $rdi, implicit killed $rsi, implicit killed $rdx, implicit-def $rsp, implicit-def $ssp, implicit-def dead $eax
208B	  ADJCALLSTACKUP64 0, 0, implicit-def dead $rsp, implicit-def dead $eflags, implicit-def dead $ssp, implicit $rsp, implicit $ssp
224B	  RET 0

# End machine code for function __cxx_global_var_init.

# *** IR Dump After Live Register Matrix ***:
# Machine code for function __cxx_global_var_init: NoPHIs, TracksLiveness

0B	bb.0 (%ir-block.0):
16B	  ADJCALLSTACKDOWN64 0, 0, 0, implicit-def dead $rsp, implicit-def dead $eflags, implicit-def dead $ssp, implicit $rsp, implicit $ssp
48B	  $rdi = MOV32ri64 @_ZStL8__ioinit
64B	  CALL64pcrel32 @_ZNSt8ios_base4InitC1Ev, <regmask $bh $bl $bp $bph $bpl $bx $ebp $ebx $hbp $hbx $rbp $rbx $r12 $r13 $r14 $r15 $r12b $r13b $r14b $r15b $r12bh $r13bh $r14bh $r15bh $r12d $r13d $r14d $r15d $r12w $r13w $r14w $r15w $r12wh and 3 more...>, implicit $rsp, implicit $ssp, implicit killed $rdi, implicit-def $rsp, implicit-def $ssp
80B	  ADJCALLSTACKUP64 0, 0, implicit-def dead $rsp, implicit-def dead $eflags, implicit-def dead $ssp, implicit $rsp, implicit $ssp
96B	  ADJCALLSTACKDOWN64 0, 0, 0, implicit-def dead $rsp, implicit-def dead $eflags, implicit-def dead $ssp, implicit $rsp, implicit $ssp
144B	  $rdi = MOV32ri64 @_ZNSt8ios_base4InitD1Ev
160B	  $rsi = MOV32ri64 @_ZStL8__ioinit
176B	  $rdx = MOV32ri64 @__dso_handle
192B	  CALL64pcrel32 @__cxa_atexit, <regmask $bh $bl $bp $bph $bpl $bx $ebp $ebx $hbp $hbx $rbp $rbx $r12 $r13 $r14 $r15 $r12b $r13b $r14b $r15b $r12bh $r13bh $r14bh $r15bh $r12d $r13d $r14d $r15d $r12w $r13w $r14w $r15w $r12wh and 3 more...>, implicit $rsp, implicit $ssp, implicit killed $rdi, implicit killed $rsi, implicit killed $rdx, implicit-def $rsp, implicit-def $ssp, implicit-def dead $eax
208B	  ADJCALLSTACKUP64 0, 0, implicit-def dead $rsp, implicit-def dead $eflags, implicit-def dead $ssp, implicit $rsp, implicit $ssp
224B	  RET 0

# End machine code for function __cxx_global_var_init.

# *** IR Dump Before Greedy Register Allocator ***:
# Machine code for function __cxx_global_var_init: NoPHIs, TracksLiveness

0B	bb.0 (%ir-block.0):
16B	  ADJCALLSTACKDOWN64 0, 0, 0, implicit-def dead $rsp, implicit-def dead $eflags, implicit-def dead $ssp, implicit $rsp, implicit $ssp
48B	  $rdi = MOV32ri64 @_ZStL8__ioinit
64B	  CALL64pcrel32 @_ZNSt8ios_base4InitC1Ev, <regmask $bh $bl $bp $bph $bpl $bx $ebp $ebx $hbp $hbx $rbp $rbx $r12 $r13 $r14 $r15 $r12b $r13b $r14b $r15b $r12bh $r13bh $r14bh $r15bh $r12d $r13d $r14d $r15d $r12w $r13w $r14w $r15w $r12wh and 3 more...>, implicit $rsp, implicit $ssp, implicit killed $rdi, implicit-def $rsp, implicit-def $ssp
80B	  ADJCALLSTACKUP64 0, 0, implicit-def dead $rsp, implicit-def dead $eflags, implicit-def dead $ssp, implicit $rsp, implicit $ssp
96B	  ADJCALLSTACKDOWN64 0, 0, 0, implicit-def dead $rsp, implicit-def dead $eflags, implicit-def dead $ssp, implicit $rsp, implicit $ssp
144B	  $rdi = MOV32ri64 @_ZNSt8ios_base4InitD1Ev
160B	  $rsi = MOV32ri64 @_ZStL8__ioinit
176B	  $rdx = MOV32ri64 @__dso_handle
192B	  CALL64pcrel32 @__cxa_atexit, <regmask $bh $bl $bp $bph $bpl $bx $ebp $ebx $hbp $hbx $rbp $rbx $r12 $r13 $r14 $r15 $r12b $r13b $r14b $r15b $r12bh $r13bh $r14bh $r15bh $r12d $r13d $r14d $r15d $r12w $r13w $r14w $r15w $r12wh and 3 more...>, implicit $rsp, implicit $ssp, implicit killed $rdi, implicit killed $rsi, implicit killed $rdx, implicit-def $rsp, implicit-def $ssp, implicit-def dead $eax
208B	  ADJCALLSTACKUP64 0, 0, implicit-def dead $rsp, implicit-def dead $eflags, implicit-def dead $ssp, implicit $rsp, implicit $ssp
224B	  RET 0

# End machine code for function __cxx_global_var_init.

# *** IR Dump After Greedy Register Allocator ***:
# Machine code for function __cxx_global_var_init: NoPHIs, TracksLiveness

0B	bb.0 (%ir-block.0):
16B	  ADJCALLSTACKDOWN64 0, 0, 0, implicit-def dead $rsp, implicit-def dead $eflags, implicit-def dead $ssp, implicit $rsp, implicit $ssp
48B	  $rdi = MOV32ri64 @_ZStL8__ioinit
64B	  CALL64pcrel32 @_ZNSt8ios_base4InitC1Ev, <regmask $bh $bl $bp $bph $bpl $bx $ebp $ebx $hbp $hbx $rbp $rbx $r12 $r13 $r14 $r15 $r12b $r13b $r14b $r15b $r12bh $r13bh $r14bh $r15bh $r12d $r13d $r14d $r15d $r12w $r13w $r14w $r15w $r12wh and 3 more...>, implicit $rsp, implicit $ssp, implicit killed $rdi, implicit-def $rsp, implicit-def $ssp
80B	  ADJCALLSTACKUP64 0, 0, implicit-def dead $rsp, implicit-def dead $eflags, implicit-def dead $ssp, implicit $rsp, implicit $ssp
96B	  ADJCALLSTACKDOWN64 0, 0, 0, implicit-def dead $rsp, implicit-def dead $eflags, implicit-def dead $ssp, implicit $rsp, implicit $ssp
144B	  $rdi = MOV32ri64 @_ZNSt8ios_base4InitD1Ev
160B	  $rsi = MOV32ri64 @_ZStL8__ioinit
176B	  $rdx = MOV32ri64 @__dso_handle
192B	  CALL64pcrel32 @__cxa_atexit, <regmask $bh $bl $bp $bph $bpl $bx $ebp $ebx $hbp $hbx $rbp $rbx $r12 $r13 $r14 $r15 $r12b $r13b $r14b $r15b $r12bh $r13bh $r14bh $r15bh $r12d $r13d $r14d $r15d $r12w $r13w $r14w $r15w $r12wh and 3 more...>, implicit $rsp, implicit $ssp, implicit killed $rdi, implicit killed $rsi, implicit killed $rdx, implicit-def $rsp, implicit-def $ssp, implicit-def dead $eax
208B	  ADJCALLSTACKUP64 0, 0, implicit-def dead $rsp, implicit-def dead $eflags, implicit-def dead $ssp, implicit $rsp, implicit $ssp
224B	  RET 0

# End machine code for function __cxx_global_var_init.

# *** IR Dump Before Virtual Register Rewriter ***:
# Machine code for function __cxx_global_var_init: NoPHIs, TracksLiveness

0B	bb.0 (%ir-block.0):
16B	  ADJCALLSTACKDOWN64 0, 0, 0, implicit-def dead $rsp, implicit-def dead $eflags, implicit-def dead $ssp, implicit $rsp, implicit $ssp
48B	  $rdi = MOV32ri64 @_ZStL8__ioinit
64B	  CALL64pcrel32 @_ZNSt8ios_base4InitC1Ev, <regmask $bh $bl $bp $bph $bpl $bx $ebp $ebx $hbp $hbx $rbp $rbx $r12 $r13 $r14 $r15 $r12b $r13b $r14b $r15b $r12bh $r13bh $r14bh $r15bh $r12d $r13d $r14d $r15d $r12w $r13w $r14w $r15w $r12wh and 3 more...>, implicit $rsp, implicit $ssp, implicit killed $rdi, implicit-def $rsp, implicit-def $ssp
80B	  ADJCALLSTACKUP64 0, 0, implicit-def dead $rsp, implicit-def dead $eflags, implicit-def dead $ssp, implicit $rsp, implicit $ssp
96B	  ADJCALLSTACKDOWN64 0, 0, 0, implicit-def dead $rsp, implicit-def dead $eflags, implicit-def dead $ssp, implicit $rsp, implicit $ssp
144B	  $rdi = MOV32ri64 @_ZNSt8ios_base4InitD1Ev
160B	  $rsi = MOV32ri64 @_ZStL8__ioinit
176B	  $rdx = MOV32ri64 @__dso_handle
192B	  CALL64pcrel32 @__cxa_atexit, <regmask $bh $bl $bp $bph $bpl $bx $ebp $ebx $hbp $hbx $rbp $rbx $r12 $r13 $r14 $r15 $r12b $r13b $r14b $r15b $r12bh $r13bh $r14bh $r15bh $r12d $r13d $r14d $r15d $r12w $r13w $r14w $r15w $r12wh and 3 more...>, implicit $rsp, implicit $ssp, implicit killed $rdi, implicit killed $rsi, implicit killed $rdx, implicit-def $rsp, implicit-def $ssp, implicit-def dead $eax
208B	  ADJCALLSTACKUP64 0, 0, implicit-def dead $rsp, implicit-def dead $eflags, implicit-def dead $ssp, implicit $rsp, implicit $ssp
224B	  RET 0

# End machine code for function __cxx_global_var_init.

# *** IR Dump After Virtual Register Rewriter ***:
# Machine code for function __cxx_global_var_init: NoPHIs, TracksLiveness, NoVRegs

0B	bb.0 (%ir-block.0):
16B	  ADJCALLSTACKDOWN64 0, 0, 0, implicit-def dead $rsp, implicit-def dead $eflags, implicit-def dead $ssp, implicit $rsp, implicit $ssp
48B	  $rdi = MOV32ri64 @_ZStL8__ioinit
64B	  CALL64pcrel32 @_ZNSt8ios_base4InitC1Ev, <regmask $bh $bl $bp $bph $bpl $bx $ebp $ebx $hbp $hbx $rbp $rbx $r12 $r13 $r14 $r15 $r12b $r13b $r14b $r15b $r12bh $r13bh $r14bh $r15bh $r12d $r13d $r14d $r15d $r12w $r13w $r14w $r15w $r12wh and 3 more...>, implicit $rsp, implicit $ssp, implicit killed $rdi, implicit-def $rsp, implicit-def $ssp
80B	  ADJCALLSTACKUP64 0, 0, implicit-def dead $rsp, implicit-def dead $eflags, implicit-def dead $ssp, implicit $rsp, implicit $ssp
96B	  ADJCALLSTACKDOWN64 0, 0, 0, implicit-def dead $rsp, implicit-def dead $eflags, implicit-def dead $ssp, implicit $rsp, implicit $ssp
144B	  $rdi = MOV32ri64 @_ZNSt8ios_base4InitD1Ev
160B	  $rsi = MOV32ri64 @_ZStL8__ioinit
176B	  $rdx = MOV32ri64 @__dso_handle
192B	  CALL64pcrel32 @__cxa_atexit, <regmask $bh $bl $bp $bph $bpl $bx $ebp $ebx $hbp $hbx $rbp $rbx $r12 $r13 $r14 $r15 $r12b $r13b $r14b $r15b $r12bh $r13bh $r14bh $r15bh $r12d $r13d $r14d $r15d $r12w $r13w $r14w $r15w $r12wh and 3 more...>, implicit $rsp, implicit $ssp, implicit killed $rdi, implicit killed $rsi, implicit killed $rdx, implicit-def $rsp, implicit-def $ssp, implicit-def dead $eax
208B	  ADJCALLSTACKUP64 0, 0, implicit-def dead $rsp, implicit-def dead $eflags, implicit-def dead $ssp, implicit $rsp, implicit $ssp
224B	  RET 0

# End machine code for function __cxx_global_var_init.

# *** IR Dump Before Stack Slot Coloring ***:
# Machine code for function __cxx_global_var_init: NoPHIs, TracksLiveness, NoVRegs

0B	bb.0 (%ir-block.0):
16B	  ADJCALLSTACKDOWN64 0, 0, 0, implicit-def dead $rsp, implicit-def dead $eflags, implicit-def dead $ssp, implicit $rsp, implicit $ssp
48B	  $rdi = MOV32ri64 @_ZStL8__ioinit
64B	  CALL64pcrel32 @_ZNSt8ios_base4InitC1Ev, <regmask $bh $bl $bp $bph $bpl $bx $ebp $ebx $hbp $hbx $rbp $rbx $r12 $r13 $r14 $r15 $r12b $r13b $r14b $r15b $r12bh $r13bh $r14bh $r15bh $r12d $r13d $r14d $r15d $r12w $r13w $r14w $r15w $r12wh and 3 more...>, implicit $rsp, implicit $ssp, implicit killed $rdi, implicit-def $rsp, implicit-def $ssp
80B	  ADJCALLSTACKUP64 0, 0, implicit-def dead $rsp, implicit-def dead $eflags, implicit-def dead $ssp, implicit $rsp, implicit $ssp
96B	  ADJCALLSTACKDOWN64 0, 0, 0, implicit-def dead $rsp, implicit-def dead $eflags, implicit-def dead $ssp, implicit $rsp, implicit $ssp
144B	  $rdi = MOV32ri64 @_ZNSt8ios_base4InitD1Ev
160B	  $rsi = MOV32ri64 @_ZStL8__ioinit
176B	  $rdx = MOV32ri64 @__dso_handle
192B	  CALL64pcrel32 @__cxa_atexit, <regmask $bh $bl $bp $bph $bpl $bx $ebp $ebx $hbp $hbx $rbp $rbx $r12 $r13 $r14 $r15 $r12b $r13b $r14b $r15b $r12bh $r13bh $r14bh $r15bh $r12d $r13d $r14d $r15d $r12w $r13w $r14w $r15w $r12wh and 3 more...>, implicit $rsp, implicit $ssp, implicit killed $rdi, implicit killed $rsi, implicit killed $rdx, implicit-def $rsp, implicit-def $ssp, implicit-def dead $eax
208B	  ADJCALLSTACKUP64 0, 0, implicit-def dead $rsp, implicit-def dead $eflags, implicit-def dead $ssp, implicit $rsp, implicit $ssp
224B	  RET 0

# End machine code for function __cxx_global_var_init.

# *** IR Dump After Stack Slot Coloring ***:
# Machine code for function __cxx_global_var_init: NoPHIs, TracksLiveness, NoVRegs

0B	bb.0 (%ir-block.0):
16B	  ADJCALLSTACKDOWN64 0, 0, 0, implicit-def dead $rsp, implicit-def dead $eflags, implicit-def dead $ssp, implicit $rsp, implicit $ssp
48B	  $rdi = MOV32ri64 @_ZStL8__ioinit
64B	  CALL64pcrel32 @_ZNSt8ios_base4InitC1Ev, <regmask $bh $bl $bp $bph $bpl $bx $ebp $ebx $hbp $hbx $rbp $rbx $r12 $r13 $r14 $r15 $r12b $r13b $r14b $r15b $r12bh $r13bh $r14bh $r15bh $r12d $r13d $r14d $r15d $r12w $r13w $r14w $r15w $r12wh and 3 more...>, implicit $rsp, implicit $ssp, implicit killed $rdi, implicit-def $rsp, implicit-def $ssp
80B	  ADJCALLSTACKUP64 0, 0, implicit-def dead $rsp, implicit-def dead $eflags, implicit-def dead $ssp, implicit $rsp, implicit $ssp
96B	  ADJCALLSTACKDOWN64 0, 0, 0, implicit-def dead $rsp, implicit-def dead $eflags, implicit-def dead $ssp, implicit $rsp, implicit $ssp
144B	  $rdi = MOV32ri64 @_ZNSt8ios_base4InitD1Ev
160B	  $rsi = MOV32ri64 @_ZStL8__ioinit
176B	  $rdx = MOV32ri64 @__dso_handle
192B	  CALL64pcrel32 @__cxa_atexit, <regmask $bh $bl $bp $bph $bpl $bx $ebp $ebx $hbp $hbx $rbp $rbx $r12 $r13 $r14 $r15 $r12b $r13b $r14b $r15b $r12bh $r13bh $r14bh $r15bh $r12d $r13d $r14d $r15d $r12w $r13w $r14w $r15w $r12wh and 3 more...>, implicit $rsp, implicit $ssp, implicit killed $rdi, implicit killed $rsi, implicit killed $rdx, implicit-def $rsp, implicit-def $ssp, implicit-def dead $eax
208B	  ADJCALLSTACKUP64 0, 0, implicit-def dead $rsp, implicit-def dead $eflags, implicit-def dead $ssp, implicit $rsp, implicit $ssp
224B	  RET 0

# End machine code for function __cxx_global_var_init.

# *** IR Dump Before Machine Copy Propagation Pass ***:
# Machine code for function __cxx_global_var_init: NoPHIs, TracksLiveness, NoVRegs

0B	bb.0 (%ir-block.0):
16B	  ADJCALLSTACKDOWN64 0, 0, 0, implicit-def dead $rsp, implicit-def dead $eflags, implicit-def dead $ssp, implicit $rsp, implicit $ssp
48B	  $rdi = MOV32ri64 @_ZStL8__ioinit
64B	  CALL64pcrel32 @_ZNSt8ios_base4InitC1Ev, <regmask $bh $bl $bp $bph $bpl $bx $ebp $ebx $hbp $hbx $rbp $rbx $r12 $r13 $r14 $r15 $r12b $r13b $r14b $r15b $r12bh $r13bh $r14bh $r15bh $r12d $r13d $r14d $r15d $r12w $r13w $r14w $r15w $r12wh and 3 more...>, implicit $rsp, implicit $ssp, implicit killed $rdi, implicit-def $rsp, implicit-def $ssp
80B	  ADJCALLSTACKUP64 0, 0, implicit-def dead $rsp, implicit-def dead $eflags, implicit-def dead $ssp, implicit $rsp, implicit $ssp
96B	  ADJCALLSTACKDOWN64 0, 0, 0, implicit-def dead $rsp, implicit-def dead $eflags, implicit-def dead $ssp, implicit $rsp, implicit $ssp
144B	  $rdi = MOV32ri64 @_ZNSt8ios_base4InitD1Ev
160B	  $rsi = MOV32ri64 @_ZStL8__ioinit
176B	  $rdx = MOV32ri64 @__dso_handle
192B	  CALL64pcrel32 @__cxa_atexit, <regmask $bh $bl $bp $bph $bpl $bx $ebp $ebx $hbp $hbx $rbp $rbx $r12 $r13 $r14 $r15 $r12b $r13b $r14b $r15b $r12bh $r13bh $r14bh $r15bh $r12d $r13d $r14d $r15d $r12w $r13w $r14w $r15w $r12wh and 3 more...>, implicit $rsp, implicit $ssp, implicit killed $rdi, implicit killed $rsi, implicit killed $rdx, implicit-def $rsp, implicit-def $ssp, implicit-def dead $eax
208B	  ADJCALLSTACKUP64 0, 0, implicit-def dead $rsp, implicit-def dead $eflags, implicit-def dead $ssp, implicit $rsp, implicit $ssp
224B	  RET 0

# End machine code for function __cxx_global_var_init.

# *** IR Dump After Machine Copy Propagation Pass ***:
# Machine code for function __cxx_global_var_init: NoPHIs, TracksLiveness, NoVRegs

bb.0 (%ir-block.0):
  ADJCALLSTACKDOWN64 0, 0, 0, implicit-def dead $rsp, implicit-def dead $eflags, implicit-def dead $ssp, implicit $rsp, implicit $ssp
  $rdi = MOV32ri64 @_ZStL8__ioinit
  CALL64pcrel32 @_ZNSt8ios_base4InitC1Ev, <regmask $bh $bl $bp $bph $bpl $bx $ebp $ebx $hbp $hbx $rbp $rbx $r12 $r13 $r14 $r15 $r12b $r13b $r14b $r15b $r12bh $r13bh $r14bh $r15bh $r12d $r13d $r14d $r15d $r12w $r13w $r14w $r15w $r12wh and 3 more...>, implicit $rsp, implicit $ssp, implicit killed $rdi, implicit-def $rsp, implicit-def $ssp
  ADJCALLSTACKUP64 0, 0, implicit-def dead $rsp, implicit-def dead $eflags, implicit-def dead $ssp, implicit $rsp, implicit $ssp
  ADJCALLSTACKDOWN64 0, 0, 0, implicit-def dead $rsp, implicit-def dead $eflags, implicit-def dead $ssp, implicit $rsp, implicit $ssp
  $rdi = MOV32ri64 @_ZNSt8ios_base4InitD1Ev
  $rsi = MOV32ri64 @_ZStL8__ioinit
  $rdx = MOV32ri64 @__dso_handle
  CALL64pcrel32 @__cxa_atexit, <regmask $bh $bl $bp $bph $bpl $bx $ebp $ebx $hbp $hbx $rbp $rbx $r12 $r13 $r14 $r15 $r12b $r13b $r14b $r15b $r12bh $r13bh $r14bh $r15bh $r12d $r13d $r14d $r15d $r12w $r13w $r14w $r15w $r12wh and 3 more...>, implicit $rsp, implicit $ssp, implicit killed $rdi, implicit killed $rsi, implicit killed $rdx, implicit-def $rsp, implicit-def $ssp, implicit-def dead $eax
  ADJCALLSTACKUP64 0, 0, implicit-def dead $rsp, implicit-def dead $eflags, implicit-def dead $ssp, implicit $rsp, implicit $ssp
  RET 0

# End machine code for function __cxx_global_var_init.

# *** IR Dump Before Machine Loop Invariant Code Motion ***:
# Machine code for function __cxx_global_var_init: NoPHIs, TracksLiveness, NoVRegs

bb.0 (%ir-block.0):
